
kernel/kernel:     file format elf64-littleriscv


Disassembly of section .text:

0000000080000000 <_entry>:
    80000000:	0000a117          	auipc	sp,0xa
    80000004:	1c013103          	ld	sp,448(sp) # 8000a1c0 <_GLOBAL_OFFSET_TABLE_+0x8>
    80000008:	6505                	lui	a0,0x1
    8000000a:	f14025f3          	csrr	a1,mhartid
    8000000e:	0585                	addi	a1,a1,1
    80000010:	02b50533          	mul	a0,a0,a1
    80000014:	912a                	add	sp,sp,a0
    80000016:	4b9040ef          	jal	80004cce <start>

000000008000001a <spin>:
    8000001a:	a001                	j	8000001a <spin>

000000008000001c <kfree>:
// which normally should have been returned by a
// call to kalloc().  (The exception is when
// initializing the allocator; see kinit above.)
void
kfree(void *pa)
{
    8000001c:	1101                	addi	sp,sp,-32
    8000001e:	ec06                	sd	ra,24(sp)
    80000020:	e822                	sd	s0,16(sp)
    80000022:	e426                	sd	s1,8(sp)
    80000024:	e04a                	sd	s2,0(sp)
    80000026:	1000                	addi	s0,sp,32
  struct run *r;

  if(((uint64)pa % PGSIZE) != 0 || (char*)pa < end || (uint64)pa >= PHYSTOP)
    80000028:	03451793          	slli	a5,a0,0x34
    8000002c:	e7a9                	bnez	a5,80000076 <kfree+0x5a>
    8000002e:	84aa                	mv	s1,a0
    80000030:	00031797          	auipc	a5,0x31
    80000034:	7e078793          	addi	a5,a5,2016 # 80031810 <end>
    80000038:	02f56f63          	bltu	a0,a5,80000076 <kfree+0x5a>
    8000003c:	47c5                	li	a5,17
    8000003e:	07ee                	slli	a5,a5,0x1b
    80000040:	02f57b63          	bgeu	a0,a5,80000076 <kfree+0x5a>
    panic("kfree");

  // Fill with junk to catch dangling refs.
  memset(pa, 1, PGSIZE);
    80000044:	6605                	lui	a2,0x1
    80000046:	4585                	li	a1,1
    80000048:	106000ef          	jal	8000014e <memset>

  r = (struct run*)pa;

  acquire(&kmem.lock);
    8000004c:	0000a917          	auipc	s2,0xa
    80000050:	1c490913          	addi	s2,s2,452 # 8000a210 <kmem>
    80000054:	854a                	mv	a0,s2
    80000056:	6da050ef          	jal	80005730 <acquire>
  r->next = kmem.freelist;
    8000005a:	01893783          	ld	a5,24(s2)
    8000005e:	e09c                	sd	a5,0(s1)
  kmem.freelist = r;
    80000060:	00993c23          	sd	s1,24(s2)
  release(&kmem.lock);
    80000064:	854a                	mv	a0,s2
    80000066:	762050ef          	jal	800057c8 <release>
}
    8000006a:	60e2                	ld	ra,24(sp)
    8000006c:	6442                	ld	s0,16(sp)
    8000006e:	64a2                	ld	s1,8(sp)
    80000070:	6902                	ld	s2,0(sp)
    80000072:	6105                	addi	sp,sp,32
    80000074:	8082                	ret
    panic("kfree");
    80000076:	00007517          	auipc	a0,0x7
    8000007a:	f8a50513          	addi	a0,a0,-118 # 80007000 <etext>
    8000007e:	384050ef          	jal	80005402 <panic>

0000000080000082 <freerange>:
{
    80000082:	7179                	addi	sp,sp,-48
    80000084:	f406                	sd	ra,40(sp)
    80000086:	f022                	sd	s0,32(sp)
    80000088:	ec26                	sd	s1,24(sp)
    8000008a:	1800                	addi	s0,sp,48
  p = (char*)PGROUNDUP((uint64)pa_start);
    8000008c:	6785                	lui	a5,0x1
    8000008e:	fff78713          	addi	a4,a5,-1 # fff <_entry-0x7ffff001>
    80000092:	00e504b3          	add	s1,a0,a4
    80000096:	777d                	lui	a4,0xfffff
    80000098:	8cf9                	and	s1,s1,a4
  for(; p + PGSIZE <= (char*)pa_end; p += PGSIZE)
    8000009a:	94be                	add	s1,s1,a5
    8000009c:	0295e263          	bltu	a1,s1,800000c0 <freerange+0x3e>
    800000a0:	e84a                	sd	s2,16(sp)
    800000a2:	e44e                	sd	s3,8(sp)
    800000a4:	e052                	sd	s4,0(sp)
    800000a6:	892e                	mv	s2,a1
    kfree(p);
    800000a8:	7a7d                	lui	s4,0xfffff
  for(; p + PGSIZE <= (char*)pa_end; p += PGSIZE)
    800000aa:	6985                	lui	s3,0x1
    kfree(p);
    800000ac:	01448533          	add	a0,s1,s4
    800000b0:	f6dff0ef          	jal	8000001c <kfree>
  for(; p + PGSIZE <= (char*)pa_end; p += PGSIZE)
    800000b4:	94ce                	add	s1,s1,s3
    800000b6:	fe997be3          	bgeu	s2,s1,800000ac <freerange+0x2a>
    800000ba:	6942                	ld	s2,16(sp)
    800000bc:	69a2                	ld	s3,8(sp)
    800000be:	6a02                	ld	s4,0(sp)
}
    800000c0:	70a2                	ld	ra,40(sp)
    800000c2:	7402                	ld	s0,32(sp)
    800000c4:	64e2                	ld	s1,24(sp)
    800000c6:	6145                	addi	sp,sp,48
    800000c8:	8082                	ret

00000000800000ca <kinit>:
{
    800000ca:	1141                	addi	sp,sp,-16
    800000cc:	e406                	sd	ra,8(sp)
    800000ce:	e022                	sd	s0,0(sp)
    800000d0:	0800                	addi	s0,sp,16
  initlock(&kmem.lock, "kmem");
    800000d2:	00007597          	auipc	a1,0x7
    800000d6:	f3e58593          	addi	a1,a1,-194 # 80007010 <etext+0x10>
    800000da:	0000a517          	auipc	a0,0xa
    800000de:	13650513          	addi	a0,a0,310 # 8000a210 <kmem>
    800000e2:	5ce050ef          	jal	800056b0 <initlock>
  freerange(end, (void*)PHYSTOP);
    800000e6:	45c5                	li	a1,17
    800000e8:	05ee                	slli	a1,a1,0x1b
    800000ea:	00031517          	auipc	a0,0x31
    800000ee:	72650513          	addi	a0,a0,1830 # 80031810 <end>
    800000f2:	f91ff0ef          	jal	80000082 <freerange>
}
    800000f6:	60a2                	ld	ra,8(sp)
    800000f8:	6402                	ld	s0,0(sp)
    800000fa:	0141                	addi	sp,sp,16
    800000fc:	8082                	ret

00000000800000fe <kalloc>:
// Allocate one 4096-byte page of physical memory.
// Returns a pointer that the kernel can use.
// Returns 0 if the memory cannot be allocated.
void *
kalloc(void)
{
    800000fe:	1101                	addi	sp,sp,-32
    80000100:	ec06                	sd	ra,24(sp)
    80000102:	e822                	sd	s0,16(sp)
    80000104:	e426                	sd	s1,8(sp)
    80000106:	1000                	addi	s0,sp,32
  struct run *r;

  acquire(&kmem.lock);
    80000108:	0000a497          	auipc	s1,0xa
    8000010c:	10848493          	addi	s1,s1,264 # 8000a210 <kmem>
    80000110:	8526                	mv	a0,s1
    80000112:	61e050ef          	jal	80005730 <acquire>
  r = kmem.freelist;
    80000116:	6c84                	ld	s1,24(s1)
  if(r)
    80000118:	c485                	beqz	s1,80000140 <kalloc+0x42>
    kmem.freelist = r->next;
    8000011a:	609c                	ld	a5,0(s1)
    8000011c:	0000a517          	auipc	a0,0xa
    80000120:	0f450513          	addi	a0,a0,244 # 8000a210 <kmem>
    80000124:	ed1c                	sd	a5,24(a0)
  release(&kmem.lock);
    80000126:	6a2050ef          	jal	800057c8 <release>

  if(r)
    memset((char*)r, 5, PGSIZE); // fill with junk
    8000012a:	6605                	lui	a2,0x1
    8000012c:	4595                	li	a1,5
    8000012e:	8526                	mv	a0,s1
    80000130:	01e000ef          	jal	8000014e <memset>
  return (void*)r;
}
    80000134:	8526                	mv	a0,s1
    80000136:	60e2                	ld	ra,24(sp)
    80000138:	6442                	ld	s0,16(sp)
    8000013a:	64a2                	ld	s1,8(sp)
    8000013c:	6105                	addi	sp,sp,32
    8000013e:	8082                	ret
  release(&kmem.lock);
    80000140:	0000a517          	auipc	a0,0xa
    80000144:	0d050513          	addi	a0,a0,208 # 8000a210 <kmem>
    80000148:	680050ef          	jal	800057c8 <release>
  if(r)
    8000014c:	b7e5                	j	80000134 <kalloc+0x36>

000000008000014e <memset>:
#include "types.h"

void*
memset(void *dst, int c, uint n)
{
    8000014e:	1141                	addi	sp,sp,-16
    80000150:	e422                	sd	s0,8(sp)
    80000152:	0800                	addi	s0,sp,16
  char *cdst = (char *) dst;
  int i;
  for(i = 0; i < n; i++){
    80000154:	ca19                	beqz	a2,8000016a <memset+0x1c>
    80000156:	87aa                	mv	a5,a0
    80000158:	1602                	slli	a2,a2,0x20
    8000015a:	9201                	srli	a2,a2,0x20
    8000015c:	00a60733          	add	a4,a2,a0
    cdst[i] = c;
    80000160:	00b78023          	sb	a1,0(a5)
  for(i = 0; i < n; i++){
    80000164:	0785                	addi	a5,a5,1
    80000166:	fee79de3          	bne	a5,a4,80000160 <memset+0x12>
  }
  return dst;
}
    8000016a:	6422                	ld	s0,8(sp)
    8000016c:	0141                	addi	sp,sp,16
    8000016e:	8082                	ret

0000000080000170 <memcmp>:

int
memcmp(const void *v1, const void *v2, uint n)
{
    80000170:	1141                	addi	sp,sp,-16
    80000172:	e422                	sd	s0,8(sp)
    80000174:	0800                	addi	s0,sp,16
  const uchar *s1, *s2;

  s1 = v1;
  s2 = v2;
  while(n-- > 0){
    80000176:	ca05                	beqz	a2,800001a6 <memcmp+0x36>
    80000178:	fff6069b          	addiw	a3,a2,-1 # fff <_entry-0x7ffff001>
    8000017c:	1682                	slli	a3,a3,0x20
    8000017e:	9281                	srli	a3,a3,0x20
    80000180:	0685                	addi	a3,a3,1
    80000182:	96aa                	add	a3,a3,a0
    if(*s1 != *s2)
    80000184:	00054783          	lbu	a5,0(a0)
    80000188:	0005c703          	lbu	a4,0(a1)
    8000018c:	00e79863          	bne	a5,a4,8000019c <memcmp+0x2c>
      return *s1 - *s2;
    s1++, s2++;
    80000190:	0505                	addi	a0,a0,1
    80000192:	0585                	addi	a1,a1,1
  while(n-- > 0){
    80000194:	fed518e3          	bne	a0,a3,80000184 <memcmp+0x14>
  }

  return 0;
    80000198:	4501                	li	a0,0
    8000019a:	a019                	j	800001a0 <memcmp+0x30>
      return *s1 - *s2;
    8000019c:	40e7853b          	subw	a0,a5,a4
}
    800001a0:	6422                	ld	s0,8(sp)
    800001a2:	0141                	addi	sp,sp,16
    800001a4:	8082                	ret
  return 0;
    800001a6:	4501                	li	a0,0
    800001a8:	bfe5                	j	800001a0 <memcmp+0x30>

00000000800001aa <memmove>:

void*
memmove(void *dst, const void *src, uint n)
{
    800001aa:	1141                	addi	sp,sp,-16
    800001ac:	e422                	sd	s0,8(sp)
    800001ae:	0800                	addi	s0,sp,16
  const char *s;
  char *d;

  if(n == 0)
    800001b0:	c205                	beqz	a2,800001d0 <memmove+0x26>
    return dst;
  
  s = src;
  d = dst;
  if(s < d && s + n > d){
    800001b2:	02a5e263          	bltu	a1,a0,800001d6 <memmove+0x2c>
    s += n;
    d += n;
    while(n-- > 0)
      *--d = *--s;
  } else
    while(n-- > 0)
    800001b6:	1602                	slli	a2,a2,0x20
    800001b8:	9201                	srli	a2,a2,0x20
    800001ba:	00c587b3          	add	a5,a1,a2
{
    800001be:	872a                	mv	a4,a0
      *d++ = *s++;
    800001c0:	0585                	addi	a1,a1,1
    800001c2:	0705                	addi	a4,a4,1 # fffffffffffff001 <end+0xffffffff7ffcd7f1>
    800001c4:	fff5c683          	lbu	a3,-1(a1)
    800001c8:	fed70fa3          	sb	a3,-1(a4)
    while(n-- > 0)
    800001cc:	feb79ae3          	bne	a5,a1,800001c0 <memmove+0x16>

  return dst;
}
    800001d0:	6422                	ld	s0,8(sp)
    800001d2:	0141                	addi	sp,sp,16
    800001d4:	8082                	ret
  if(s < d && s + n > d){
    800001d6:	02061693          	slli	a3,a2,0x20
    800001da:	9281                	srli	a3,a3,0x20
    800001dc:	00d58733          	add	a4,a1,a3
    800001e0:	fce57be3          	bgeu	a0,a4,800001b6 <memmove+0xc>
    d += n;
    800001e4:	96aa                	add	a3,a3,a0
    while(n-- > 0)
    800001e6:	fff6079b          	addiw	a5,a2,-1
    800001ea:	1782                	slli	a5,a5,0x20
    800001ec:	9381                	srli	a5,a5,0x20
    800001ee:	fff7c793          	not	a5,a5
    800001f2:	97ba                	add	a5,a5,a4
      *--d = *--s;
    800001f4:	177d                	addi	a4,a4,-1
    800001f6:	16fd                	addi	a3,a3,-1
    800001f8:	00074603          	lbu	a2,0(a4)
    800001fc:	00c68023          	sb	a2,0(a3)
    while(n-- > 0)
    80000200:	fef71ae3          	bne	a4,a5,800001f4 <memmove+0x4a>
    80000204:	b7f1                	j	800001d0 <memmove+0x26>

0000000080000206 <memcpy>:

// memcpy exists to placate GCC.  Use memmove.
void*
memcpy(void *dst, const void *src, uint n)
{
    80000206:	1141                	addi	sp,sp,-16
    80000208:	e406                	sd	ra,8(sp)
    8000020a:	e022                	sd	s0,0(sp)
    8000020c:	0800                	addi	s0,sp,16
  return memmove(dst, src, n);
    8000020e:	f9dff0ef          	jal	800001aa <memmove>
}
    80000212:	60a2                	ld	ra,8(sp)
    80000214:	6402                	ld	s0,0(sp)
    80000216:	0141                	addi	sp,sp,16
    80000218:	8082                	ret

000000008000021a <strncmp>:

int
strncmp(const char *p, const char *q, uint n)
{
    8000021a:	1141                	addi	sp,sp,-16
    8000021c:	e422                	sd	s0,8(sp)
    8000021e:	0800                	addi	s0,sp,16
  while(n > 0 && *p && *p == *q)
    80000220:	ce11                	beqz	a2,8000023c <strncmp+0x22>
    80000222:	00054783          	lbu	a5,0(a0)
    80000226:	cf89                	beqz	a5,80000240 <strncmp+0x26>
    80000228:	0005c703          	lbu	a4,0(a1)
    8000022c:	00f71a63          	bne	a4,a5,80000240 <strncmp+0x26>
    n--, p++, q++;
    80000230:	367d                	addiw	a2,a2,-1
    80000232:	0505                	addi	a0,a0,1
    80000234:	0585                	addi	a1,a1,1
  while(n > 0 && *p && *p == *q)
    80000236:	f675                	bnez	a2,80000222 <strncmp+0x8>
  if(n == 0)
    return 0;
    80000238:	4501                	li	a0,0
    8000023a:	a801                	j	8000024a <strncmp+0x30>
    8000023c:	4501                	li	a0,0
    8000023e:	a031                	j	8000024a <strncmp+0x30>
  return (uchar)*p - (uchar)*q;
    80000240:	00054503          	lbu	a0,0(a0)
    80000244:	0005c783          	lbu	a5,0(a1)
    80000248:	9d1d                	subw	a0,a0,a5
}
    8000024a:	6422                	ld	s0,8(sp)
    8000024c:	0141                	addi	sp,sp,16
    8000024e:	8082                	ret

0000000080000250 <strncpy>:

char*
strncpy(char *s, const char *t, int n)
{
    80000250:	1141                	addi	sp,sp,-16
    80000252:	e422                	sd	s0,8(sp)
    80000254:	0800                	addi	s0,sp,16
  char *os;

  os = s;
  while(n-- > 0 && (*s++ = *t++) != 0)
    80000256:	87aa                	mv	a5,a0
    80000258:	86b2                	mv	a3,a2
    8000025a:	367d                	addiw	a2,a2,-1
    8000025c:	02d05563          	blez	a3,80000286 <strncpy+0x36>
    80000260:	0785                	addi	a5,a5,1
    80000262:	0005c703          	lbu	a4,0(a1)
    80000266:	fee78fa3          	sb	a4,-1(a5)
    8000026a:	0585                	addi	a1,a1,1
    8000026c:	f775                	bnez	a4,80000258 <strncpy+0x8>
    ;
  while(n-- > 0)
    8000026e:	873e                	mv	a4,a5
    80000270:	9fb5                	addw	a5,a5,a3
    80000272:	37fd                	addiw	a5,a5,-1
    80000274:	00c05963          	blez	a2,80000286 <strncpy+0x36>
    *s++ = 0;
    80000278:	0705                	addi	a4,a4,1
    8000027a:	fe070fa3          	sb	zero,-1(a4)
  while(n-- > 0)
    8000027e:	40e786bb          	subw	a3,a5,a4
    80000282:	fed04be3          	bgtz	a3,80000278 <strncpy+0x28>
  return os;
}
    80000286:	6422                	ld	s0,8(sp)
    80000288:	0141                	addi	sp,sp,16
    8000028a:	8082                	ret

000000008000028c <safestrcpy>:

// Like strncpy but guaranteed to NUL-terminate.
char*
safestrcpy(char *s, const char *t, int n)
{
    8000028c:	1141                	addi	sp,sp,-16
    8000028e:	e422                	sd	s0,8(sp)
    80000290:	0800                	addi	s0,sp,16
  char *os;

  os = s;
  if(n <= 0)
    80000292:	02c05363          	blez	a2,800002b8 <safestrcpy+0x2c>
    80000296:	fff6069b          	addiw	a3,a2,-1
    8000029a:	1682                	slli	a3,a3,0x20
    8000029c:	9281                	srli	a3,a3,0x20
    8000029e:	96ae                	add	a3,a3,a1
    800002a0:	87aa                	mv	a5,a0
    return os;
  while(--n > 0 && (*s++ = *t++) != 0)
    800002a2:	00d58963          	beq	a1,a3,800002b4 <safestrcpy+0x28>
    800002a6:	0585                	addi	a1,a1,1
    800002a8:	0785                	addi	a5,a5,1
    800002aa:	fff5c703          	lbu	a4,-1(a1)
    800002ae:	fee78fa3          	sb	a4,-1(a5)
    800002b2:	fb65                	bnez	a4,800002a2 <safestrcpy+0x16>
    ;
  *s = 0;
    800002b4:	00078023          	sb	zero,0(a5)
  return os;
}
    800002b8:	6422                	ld	s0,8(sp)
    800002ba:	0141                	addi	sp,sp,16
    800002bc:	8082                	ret

00000000800002be <strlen>:

int
strlen(const char *s)
{
    800002be:	1141                	addi	sp,sp,-16
    800002c0:	e422                	sd	s0,8(sp)
    800002c2:	0800                	addi	s0,sp,16
  int n;

  for(n = 0; s[n]; n++)
    800002c4:	00054783          	lbu	a5,0(a0)
    800002c8:	cf91                	beqz	a5,800002e4 <strlen+0x26>
    800002ca:	0505                	addi	a0,a0,1
    800002cc:	87aa                	mv	a5,a0
    800002ce:	86be                	mv	a3,a5
    800002d0:	0785                	addi	a5,a5,1
    800002d2:	fff7c703          	lbu	a4,-1(a5)
    800002d6:	ff65                	bnez	a4,800002ce <strlen+0x10>
    800002d8:	40a6853b          	subw	a0,a3,a0
    800002dc:	2505                	addiw	a0,a0,1
    ;
  return n;
}
    800002de:	6422                	ld	s0,8(sp)
    800002e0:	0141                	addi	sp,sp,16
    800002e2:	8082                	ret
  for(n = 0; s[n]; n++)
    800002e4:	4501                	li	a0,0
    800002e6:	bfe5                	j	800002de <strlen+0x20>

00000000800002e8 <main>:
volatile static int started = 0;

// start() jumps here in supervisor mode on all CPUs.
void
main()
{
    800002e8:	1141                	addi	sp,sp,-16
    800002ea:	e406                	sd	ra,8(sp)
    800002ec:	e022                	sd	s0,0(sp)
    800002ee:	0800                	addi	s0,sp,16
  if(cpuid() == 0){
    800002f0:	24b000ef          	jal	80000d3a <cpuid>
    virtio_disk_init(); // emulated hard disk
    userinit();      // first user process
    __sync_synchronize();
    started = 1;
  } else {
    while(started == 0)
    800002f4:	0000a717          	auipc	a4,0xa
    800002f8:	eec70713          	addi	a4,a4,-276 # 8000a1e0 <started>
  if(cpuid() == 0){
    800002fc:	c51d                	beqz	a0,8000032a <main+0x42>
    while(started == 0)
    800002fe:	431c                	lw	a5,0(a4)
    80000300:	2781                	sext.w	a5,a5
    80000302:	dff5                	beqz	a5,800002fe <main+0x16>
      ;
    __sync_synchronize();
    80000304:	0330000f          	fence	rw,rw
    printf("hart %d starting\n", cpuid());
    80000308:	233000ef          	jal	80000d3a <cpuid>
    8000030c:	85aa                	mv	a1,a0
    8000030e:	00007517          	auipc	a0,0x7
    80000312:	d2a50513          	addi	a0,a0,-726 # 80007038 <etext+0x38>
    80000316:	61b040ef          	jal	80005130 <printf>
    kvminithart();    // turn on paging
    8000031a:	080000ef          	jal	8000039a <kvminithart>
    trapinithart();   // install kernel trap vector
    8000031e:	538010ef          	jal	80001856 <trapinithart>
    plicinithart();   // ask PLIC for device interrupts
    80000322:	3c6040ef          	jal	800046e8 <plicinithart>
  }

  scheduler();        
    80000326:	675000ef          	jal	8000119a <scheduler>
    consoleinit();
    8000032a:	531040ef          	jal	8000505a <consoleinit>
    printfinit();
    8000032e:	10e050ef          	jal	8000543c <printfinit>
    printf("\n");
    80000332:	00007517          	auipc	a0,0x7
    80000336:	ce650513          	addi	a0,a0,-794 # 80007018 <etext+0x18>
    8000033a:	5f7040ef          	jal	80005130 <printf>
    printf("xv6 kernel is booting\n");
    8000033e:	00007517          	auipc	a0,0x7
    80000342:	ce250513          	addi	a0,a0,-798 # 80007020 <etext+0x20>
    80000346:	5eb040ef          	jal	80005130 <printf>
    printf("\n");
    8000034a:	00007517          	auipc	a0,0x7
    8000034e:	cce50513          	addi	a0,a0,-818 # 80007018 <etext+0x18>
    80000352:	5df040ef          	jal	80005130 <printf>
    kinit();         // physical page allocator
    80000356:	d75ff0ef          	jal	800000ca <kinit>
    kvminit();       // create kernel page table
    8000035a:	2ca000ef          	jal	80000624 <kvminit>
    kvminithart();   // turn on paging
    8000035e:	03c000ef          	jal	8000039a <kvminithart>
    procinit();      // process table
    80000362:	123000ef          	jal	80000c84 <procinit>
    trapinit();      // trap vectors
    80000366:	4cc010ef          	jal	80001832 <trapinit>
    trapinithart();  // install kernel trap vector
    8000036a:	4ec010ef          	jal	80001856 <trapinithart>
    plicinit();      // set up interrupt controller
    8000036e:	360040ef          	jal	800046ce <plicinit>
    plicinithart();  // ask PLIC for device interrupts
    80000372:	376040ef          	jal	800046e8 <plicinithart>
    binit();         // buffer cache
    80000376:	313010ef          	jal	80001e88 <binit>
    iinit();         // inode table
    8000037a:	104020ef          	jal	8000247e <iinit>
    fileinit();      // file table
    8000037e:	6b5020ef          	jal	80003232 <fileinit>
    virtio_disk_init(); // emulated hard disk
    80000382:	456040ef          	jal	800047d8 <virtio_disk_init>
    userinit();      // first user process
    80000386:	449000ef          	jal	80000fce <userinit>
    __sync_synchronize();
    8000038a:	0330000f          	fence	rw,rw
    started = 1;
    8000038e:	4785                	li	a5,1
    80000390:	0000a717          	auipc	a4,0xa
    80000394:	e4f72823          	sw	a5,-432(a4) # 8000a1e0 <started>
    80000398:	b779                	j	80000326 <main+0x3e>

000000008000039a <kvminithart>:
    8000039a:	1141                	addi	sp,sp,-16
    8000039c:	e422                	sd	s0,8(sp)
    8000039e:	0800                	addi	s0,sp,16
    800003a0:	12000073          	sfence.vma
    800003a4:	0000a797          	auipc	a5,0xa
    800003a8:	e447b783          	ld	a5,-444(a5) # 8000a1e8 <kernel_pagetable>
    800003ac:	83b1                	srli	a5,a5,0xc
    800003ae:	577d                	li	a4,-1
    800003b0:	177e                	slli	a4,a4,0x3f
    800003b2:	8fd9                	or	a5,a5,a4
    800003b4:	18079073          	csrw	satp,a5
    800003b8:	12000073          	sfence.vma
    800003bc:	6422                	ld	s0,8(sp)
    800003be:	0141                	addi	sp,sp,16
    800003c0:	8082                	ret

00000000800003c2 <walk>:
    800003c2:	7139                	addi	sp,sp,-64
    800003c4:	fc06                	sd	ra,56(sp)
    800003c6:	f822                	sd	s0,48(sp)
    800003c8:	f426                	sd	s1,40(sp)
    800003ca:	f04a                	sd	s2,32(sp)
    800003cc:	ec4e                	sd	s3,24(sp)
    800003ce:	e852                	sd	s4,16(sp)
    800003d0:	e456                	sd	s5,8(sp)
    800003d2:	e05a                	sd	s6,0(sp)
    800003d4:	0080                	addi	s0,sp,64
    800003d6:	84aa                	mv	s1,a0
    800003d8:	89ae                	mv	s3,a1
    800003da:	8ab2                	mv	s5,a2
    800003dc:	57fd                	li	a5,-1
    800003de:	83e9                	srli	a5,a5,0x1a
    800003e0:	4a79                	li	s4,30
    800003e2:	4b31                	li	s6,12
    800003e4:	02b7fc63          	bgeu	a5,a1,8000041c <walk+0x5a>
    800003e8:	00007517          	auipc	a0,0x7
    800003ec:	c6850513          	addi	a0,a0,-920 # 80007050 <etext+0x50>
    800003f0:	012050ef          	jal	80005402 <panic>
    800003f4:	060a8263          	beqz	s5,80000458 <walk+0x96>
    800003f8:	d07ff0ef          	jal	800000fe <kalloc>
    800003fc:	84aa                	mv	s1,a0
    800003fe:	c139                	beqz	a0,80000444 <walk+0x82>
    80000400:	6605                	lui	a2,0x1
    80000402:	4581                	li	a1,0
    80000404:	d4bff0ef          	jal	8000014e <memset>
    80000408:	00c4d793          	srli	a5,s1,0xc
    8000040c:	07aa                	slli	a5,a5,0xa
    8000040e:	0017e793          	ori	a5,a5,1
    80000412:	00f93023          	sd	a5,0(s2)
    80000416:	3a5d                	addiw	s4,s4,-9 # ffffffffffffeff7 <end+0xffffffff7ffcd7e7>
    80000418:	036a0063          	beq	s4,s6,80000438 <walk+0x76>
    8000041c:	0149d933          	srl	s2,s3,s4
    80000420:	1ff97913          	andi	s2,s2,511
    80000424:	090e                	slli	s2,s2,0x3
    80000426:	9926                	add	s2,s2,s1
    80000428:	00093483          	ld	s1,0(s2)
    8000042c:	0014f793          	andi	a5,s1,1
    80000430:	d3f1                	beqz	a5,800003f4 <walk+0x32>
    80000432:	80a9                	srli	s1,s1,0xa
    80000434:	04b2                	slli	s1,s1,0xc
    80000436:	b7c5                	j	80000416 <walk+0x54>
    80000438:	00c9d513          	srli	a0,s3,0xc
    8000043c:	1ff57513          	andi	a0,a0,511
    80000440:	050e                	slli	a0,a0,0x3
    80000442:	9526                	add	a0,a0,s1
    80000444:	70e2                	ld	ra,56(sp)
    80000446:	7442                	ld	s0,48(sp)
    80000448:	74a2                	ld	s1,40(sp)
    8000044a:	7902                	ld	s2,32(sp)
    8000044c:	69e2                	ld	s3,24(sp)
    8000044e:	6a42                	ld	s4,16(sp)
    80000450:	6aa2                	ld	s5,8(sp)
    80000452:	6b02                	ld	s6,0(sp)
    80000454:	6121                	addi	sp,sp,64
    80000456:	8082                	ret
    80000458:	4501                	li	a0,0
    8000045a:	b7ed                	j	80000444 <walk+0x82>

000000008000045c <walkaddr>:
    8000045c:	57fd                	li	a5,-1
    8000045e:	83e9                	srli	a5,a5,0x1a
    80000460:	00b7f463          	bgeu	a5,a1,80000468 <walkaddr+0xc>
    80000464:	4501                	li	a0,0
    80000466:	8082                	ret
    80000468:	1141                	addi	sp,sp,-16
    8000046a:	e406                	sd	ra,8(sp)
    8000046c:	e022                	sd	s0,0(sp)
    8000046e:	0800                	addi	s0,sp,16
    80000470:	4601                	li	a2,0
    80000472:	f51ff0ef          	jal	800003c2 <walk>
    80000476:	c105                	beqz	a0,80000496 <walkaddr+0x3a>
    80000478:	611c                	ld	a5,0(a0)
    8000047a:	0117f693          	andi	a3,a5,17
    8000047e:	4745                	li	a4,17
    80000480:	4501                	li	a0,0
    80000482:	00e68663          	beq	a3,a4,8000048e <walkaddr+0x32>
    80000486:	60a2                	ld	ra,8(sp)
    80000488:	6402                	ld	s0,0(sp)
    8000048a:	0141                	addi	sp,sp,16
    8000048c:	8082                	ret
    8000048e:	83a9                	srli	a5,a5,0xa
    80000490:	00c79513          	slli	a0,a5,0xc
    80000494:	bfcd                	j	80000486 <walkaddr+0x2a>
    80000496:	4501                	li	a0,0
    80000498:	b7fd                	j	80000486 <walkaddr+0x2a>

000000008000049a <mappages>:
    8000049a:	715d                	addi	sp,sp,-80
    8000049c:	e486                	sd	ra,72(sp)
    8000049e:	e0a2                	sd	s0,64(sp)
    800004a0:	fc26                	sd	s1,56(sp)
    800004a2:	f84a                	sd	s2,48(sp)
    800004a4:	f44e                	sd	s3,40(sp)
    800004a6:	f052                	sd	s4,32(sp)
    800004a8:	ec56                	sd	s5,24(sp)
    800004aa:	e85a                	sd	s6,16(sp)
    800004ac:	e45e                	sd	s7,8(sp)
    800004ae:	0880                	addi	s0,sp,80
    800004b0:	03459793          	slli	a5,a1,0x34
    800004b4:	e7a9                	bnez	a5,800004fe <mappages+0x64>
    800004b6:	8aaa                	mv	s5,a0
    800004b8:	8b3a                	mv	s6,a4
    800004ba:	03461793          	slli	a5,a2,0x34
    800004be:	e7b1                	bnez	a5,8000050a <mappages+0x70>
    800004c0:	ca39                	beqz	a2,80000516 <mappages+0x7c>
    800004c2:	77fd                	lui	a5,0xfffff
    800004c4:	963e                	add	a2,a2,a5
    800004c6:	00b609b3          	add	s3,a2,a1
    800004ca:	892e                	mv	s2,a1
    800004cc:	40b68a33          	sub	s4,a3,a1
    800004d0:	6b85                	lui	s7,0x1
    800004d2:	014904b3          	add	s1,s2,s4
    800004d6:	4605                	li	a2,1
    800004d8:	85ca                	mv	a1,s2
    800004da:	8556                	mv	a0,s5
    800004dc:	ee7ff0ef          	jal	800003c2 <walk>
    800004e0:	c539                	beqz	a0,8000052e <mappages+0x94>
    800004e2:	611c                	ld	a5,0(a0)
    800004e4:	8b85                	andi	a5,a5,1
    800004e6:	ef95                	bnez	a5,80000522 <mappages+0x88>
    800004e8:	80b1                	srli	s1,s1,0xc
    800004ea:	04aa                	slli	s1,s1,0xa
    800004ec:	0164e4b3          	or	s1,s1,s6
    800004f0:	0014e493          	ori	s1,s1,1
    800004f4:	e104                	sd	s1,0(a0)
    800004f6:	05390863          	beq	s2,s3,80000546 <mappages+0xac>
    800004fa:	995e                	add	s2,s2,s7
    800004fc:	bfd9                	j	800004d2 <mappages+0x38>
    800004fe:	00007517          	auipc	a0,0x7
    80000502:	b5a50513          	addi	a0,a0,-1190 # 80007058 <etext+0x58>
    80000506:	6fd040ef          	jal	80005402 <panic>
    8000050a:	00007517          	auipc	a0,0x7
    8000050e:	b6e50513          	addi	a0,a0,-1170 # 80007078 <etext+0x78>
    80000512:	6f1040ef          	jal	80005402 <panic>
    80000516:	00007517          	auipc	a0,0x7
    8000051a:	b8250513          	addi	a0,a0,-1150 # 80007098 <etext+0x98>
    8000051e:	6e5040ef          	jal	80005402 <panic>
    80000522:	00007517          	auipc	a0,0x7
    80000526:	b8650513          	addi	a0,a0,-1146 # 800070a8 <etext+0xa8>
    8000052a:	6d9040ef          	jal	80005402 <panic>
    8000052e:	557d                	li	a0,-1
    80000530:	60a6                	ld	ra,72(sp)
    80000532:	6406                	ld	s0,64(sp)
    80000534:	74e2                	ld	s1,56(sp)
    80000536:	7942                	ld	s2,48(sp)
    80000538:	79a2                	ld	s3,40(sp)
    8000053a:	7a02                	ld	s4,32(sp)
    8000053c:	6ae2                	ld	s5,24(sp)
    8000053e:	6b42                	ld	s6,16(sp)
    80000540:	6ba2                	ld	s7,8(sp)
    80000542:	6161                	addi	sp,sp,80
    80000544:	8082                	ret
    80000546:	4501                	li	a0,0
    80000548:	b7e5                	j	80000530 <mappages+0x96>

000000008000054a <kvmmap>:
    8000054a:	1141                	addi	sp,sp,-16
    8000054c:	e406                	sd	ra,8(sp)
    8000054e:	e022                	sd	s0,0(sp)
    80000550:	0800                	addi	s0,sp,16
    80000552:	87b6                	mv	a5,a3
    80000554:	86b2                	mv	a3,a2
    80000556:	863e                	mv	a2,a5
    80000558:	f43ff0ef          	jal	8000049a <mappages>
    8000055c:	e509                	bnez	a0,80000566 <kvmmap+0x1c>
    8000055e:	60a2                	ld	ra,8(sp)
    80000560:	6402                	ld	s0,0(sp)
    80000562:	0141                	addi	sp,sp,16
    80000564:	8082                	ret
    80000566:	00007517          	auipc	a0,0x7
    8000056a:	b5250513          	addi	a0,a0,-1198 # 800070b8 <etext+0xb8>
    8000056e:	695040ef          	jal	80005402 <panic>

0000000080000572 <kvmmake>:
    80000572:	1101                	addi	sp,sp,-32
    80000574:	ec06                	sd	ra,24(sp)
    80000576:	e822                	sd	s0,16(sp)
    80000578:	e426                	sd	s1,8(sp)
    8000057a:	e04a                	sd	s2,0(sp)
    8000057c:	1000                	addi	s0,sp,32
    8000057e:	b81ff0ef          	jal	800000fe <kalloc>
    80000582:	84aa                	mv	s1,a0
    80000584:	6605                	lui	a2,0x1
    80000586:	4581                	li	a1,0
    80000588:	bc7ff0ef          	jal	8000014e <memset>
    8000058c:	4719                	li	a4,6
    8000058e:	6685                	lui	a3,0x1
    80000590:	10000637          	lui	a2,0x10000
    80000594:	100005b7          	lui	a1,0x10000
    80000598:	8526                	mv	a0,s1
    8000059a:	fb1ff0ef          	jal	8000054a <kvmmap>
    8000059e:	4719                	li	a4,6
    800005a0:	6685                	lui	a3,0x1
    800005a2:	10001637          	lui	a2,0x10001
    800005a6:	100015b7          	lui	a1,0x10001
    800005aa:	8526                	mv	a0,s1
    800005ac:	f9fff0ef          	jal	8000054a <kvmmap>
    800005b0:	4719                	li	a4,6
    800005b2:	040006b7          	lui	a3,0x4000
    800005b6:	0c000637          	lui	a2,0xc000
    800005ba:	0c0005b7          	lui	a1,0xc000
    800005be:	8526                	mv	a0,s1
    800005c0:	f8bff0ef          	jal	8000054a <kvmmap>
    800005c4:	00007917          	auipc	s2,0x7
    800005c8:	a3c90913          	addi	s2,s2,-1476 # 80007000 <etext>
    800005cc:	4729                	li	a4,10
    800005ce:	80007697          	auipc	a3,0x80007
    800005d2:	a3268693          	addi	a3,a3,-1486 # 7000 <_entry-0x7fff9000>
    800005d6:	4605                	li	a2,1
    800005d8:	067e                	slli	a2,a2,0x1f
    800005da:	85b2                	mv	a1,a2
    800005dc:	8526                	mv	a0,s1
    800005de:	f6dff0ef          	jal	8000054a <kvmmap>
    800005e2:	46c5                	li	a3,17
    800005e4:	06ee                	slli	a3,a3,0x1b
    800005e6:	4719                	li	a4,6
    800005e8:	412686b3          	sub	a3,a3,s2
    800005ec:	864a                	mv	a2,s2
    800005ee:	85ca                	mv	a1,s2
    800005f0:	8526                	mv	a0,s1
    800005f2:	f59ff0ef          	jal	8000054a <kvmmap>
    800005f6:	4729                	li	a4,10
    800005f8:	6685                	lui	a3,0x1
    800005fa:	00006617          	auipc	a2,0x6
    800005fe:	a0660613          	addi	a2,a2,-1530 # 80006000 <_trampoline>
    80000602:	040005b7          	lui	a1,0x4000
    80000606:	15fd                	addi	a1,a1,-1 # 3ffffff <_entry-0x7c000001>
    80000608:	05b2                	slli	a1,a1,0xc
    8000060a:	8526                	mv	a0,s1
    8000060c:	f3fff0ef          	jal	8000054a <kvmmap>
    80000610:	8526                	mv	a0,s1
    80000612:	5da000ef          	jal	80000bec <proc_mapstacks>
    80000616:	8526                	mv	a0,s1
    80000618:	60e2                	ld	ra,24(sp)
    8000061a:	6442                	ld	s0,16(sp)
    8000061c:	64a2                	ld	s1,8(sp)
    8000061e:	6902                	ld	s2,0(sp)
    80000620:	6105                	addi	sp,sp,32
    80000622:	8082                	ret

0000000080000624 <kvminit>:
    80000624:	1141                	addi	sp,sp,-16
    80000626:	e406                	sd	ra,8(sp)
    80000628:	e022                	sd	s0,0(sp)
    8000062a:	0800                	addi	s0,sp,16
    8000062c:	f47ff0ef          	jal	80000572 <kvmmake>
    80000630:	0000a797          	auipc	a5,0xa
    80000634:	baa7bc23          	sd	a0,-1096(a5) # 8000a1e8 <kernel_pagetable>
    80000638:	60a2                	ld	ra,8(sp)
    8000063a:	6402                	ld	s0,0(sp)
    8000063c:	0141                	addi	sp,sp,16
    8000063e:	8082                	ret

0000000080000640 <uvmunmap>:
    80000640:	715d                	addi	sp,sp,-80
    80000642:	e486                	sd	ra,72(sp)
    80000644:	e0a2                	sd	s0,64(sp)
    80000646:	0880                	addi	s0,sp,80
    80000648:	03459793          	slli	a5,a1,0x34
    8000064c:	e39d                	bnez	a5,80000672 <uvmunmap+0x32>
    8000064e:	f84a                	sd	s2,48(sp)
    80000650:	f44e                	sd	s3,40(sp)
    80000652:	f052                	sd	s4,32(sp)
    80000654:	ec56                	sd	s5,24(sp)
    80000656:	e85a                	sd	s6,16(sp)
    80000658:	e45e                	sd	s7,8(sp)
    8000065a:	8a2a                	mv	s4,a0
    8000065c:	892e                	mv	s2,a1
    8000065e:	8ab6                	mv	s5,a3
    80000660:	0632                	slli	a2,a2,0xc
    80000662:	00b609b3          	add	s3,a2,a1
    80000666:	4b85                	li	s7,1
    80000668:	6b05                	lui	s6,0x1
    8000066a:	0735ff63          	bgeu	a1,s3,800006e8 <uvmunmap+0xa8>
    8000066e:	fc26                	sd	s1,56(sp)
    80000670:	a0a9                	j	800006ba <uvmunmap+0x7a>
    80000672:	fc26                	sd	s1,56(sp)
    80000674:	f84a                	sd	s2,48(sp)
    80000676:	f44e                	sd	s3,40(sp)
    80000678:	f052                	sd	s4,32(sp)
    8000067a:	ec56                	sd	s5,24(sp)
    8000067c:	e85a                	sd	s6,16(sp)
    8000067e:	e45e                	sd	s7,8(sp)
    80000680:	00007517          	auipc	a0,0x7
    80000684:	a4050513          	addi	a0,a0,-1472 # 800070c0 <etext+0xc0>
    80000688:	57b040ef          	jal	80005402 <panic>
    8000068c:	00007517          	auipc	a0,0x7
    80000690:	a4c50513          	addi	a0,a0,-1460 # 800070d8 <etext+0xd8>
    80000694:	56f040ef          	jal	80005402 <panic>
    80000698:	00007517          	auipc	a0,0x7
    8000069c:	a5050513          	addi	a0,a0,-1456 # 800070e8 <etext+0xe8>
    800006a0:	563040ef          	jal	80005402 <panic>
    800006a4:	00007517          	auipc	a0,0x7
    800006a8:	a5c50513          	addi	a0,a0,-1444 # 80007100 <etext+0x100>
    800006ac:	557040ef          	jal	80005402 <panic>
    800006b0:	0004b023          	sd	zero,0(s1)
    800006b4:	995a                	add	s2,s2,s6
    800006b6:	03397863          	bgeu	s2,s3,800006e6 <uvmunmap+0xa6>
    800006ba:	4601                	li	a2,0
    800006bc:	85ca                	mv	a1,s2
    800006be:	8552                	mv	a0,s4
    800006c0:	d03ff0ef          	jal	800003c2 <walk>
    800006c4:	84aa                	mv	s1,a0
    800006c6:	d179                	beqz	a0,8000068c <uvmunmap+0x4c>
    800006c8:	6108                	ld	a0,0(a0)
    800006ca:	00157793          	andi	a5,a0,1
    800006ce:	d7e9                	beqz	a5,80000698 <uvmunmap+0x58>
    800006d0:	3ff57793          	andi	a5,a0,1023
    800006d4:	fd7788e3          	beq	a5,s7,800006a4 <uvmunmap+0x64>
    800006d8:	fc0a8ce3          	beqz	s5,800006b0 <uvmunmap+0x70>
    800006dc:	8129                	srli	a0,a0,0xa
    800006de:	0532                	slli	a0,a0,0xc
    800006e0:	93dff0ef          	jal	8000001c <kfree>
    800006e4:	b7f1                	j	800006b0 <uvmunmap+0x70>
    800006e6:	74e2                	ld	s1,56(sp)
    800006e8:	7942                	ld	s2,48(sp)
    800006ea:	79a2                	ld	s3,40(sp)
    800006ec:	7a02                	ld	s4,32(sp)
    800006ee:	6ae2                	ld	s5,24(sp)
    800006f0:	6b42                	ld	s6,16(sp)
    800006f2:	6ba2                	ld	s7,8(sp)
    800006f4:	60a6                	ld	ra,72(sp)
    800006f6:	6406                	ld	s0,64(sp)
    800006f8:	6161                	addi	sp,sp,80
    800006fa:	8082                	ret

00000000800006fc <uvmcreate>:
    800006fc:	1101                	addi	sp,sp,-32
    800006fe:	ec06                	sd	ra,24(sp)
    80000700:	e822                	sd	s0,16(sp)
    80000702:	e426                	sd	s1,8(sp)
    80000704:	1000                	addi	s0,sp,32
    80000706:	9f9ff0ef          	jal	800000fe <kalloc>
    8000070a:	84aa                	mv	s1,a0
    8000070c:	c509                	beqz	a0,80000716 <uvmcreate+0x1a>
    8000070e:	6605                	lui	a2,0x1
    80000710:	4581                	li	a1,0
    80000712:	a3dff0ef          	jal	8000014e <memset>
    80000716:	8526                	mv	a0,s1
    80000718:	60e2                	ld	ra,24(sp)
    8000071a:	6442                	ld	s0,16(sp)
    8000071c:	64a2                	ld	s1,8(sp)
    8000071e:	6105                	addi	sp,sp,32
    80000720:	8082                	ret

0000000080000722 <uvmfirst>:
    80000722:	7179                	addi	sp,sp,-48
    80000724:	f406                	sd	ra,40(sp)
    80000726:	f022                	sd	s0,32(sp)
    80000728:	ec26                	sd	s1,24(sp)
    8000072a:	e84a                	sd	s2,16(sp)
    8000072c:	e44e                	sd	s3,8(sp)
    8000072e:	e052                	sd	s4,0(sp)
    80000730:	1800                	addi	s0,sp,48
    80000732:	6785                	lui	a5,0x1
    80000734:	04f67063          	bgeu	a2,a5,80000774 <uvmfirst+0x52>
    80000738:	8a2a                	mv	s4,a0
    8000073a:	89ae                	mv	s3,a1
    8000073c:	84b2                	mv	s1,a2
    8000073e:	9c1ff0ef          	jal	800000fe <kalloc>
    80000742:	892a                	mv	s2,a0
    80000744:	6605                	lui	a2,0x1
    80000746:	4581                	li	a1,0
    80000748:	a07ff0ef          	jal	8000014e <memset>
    8000074c:	4779                	li	a4,30
    8000074e:	86ca                	mv	a3,s2
    80000750:	6605                	lui	a2,0x1
    80000752:	4581                	li	a1,0
    80000754:	8552                	mv	a0,s4
    80000756:	d45ff0ef          	jal	8000049a <mappages>
    8000075a:	8626                	mv	a2,s1
    8000075c:	85ce                	mv	a1,s3
    8000075e:	854a                	mv	a0,s2
    80000760:	a4bff0ef          	jal	800001aa <memmove>
    80000764:	70a2                	ld	ra,40(sp)
    80000766:	7402                	ld	s0,32(sp)
    80000768:	64e2                	ld	s1,24(sp)
    8000076a:	6942                	ld	s2,16(sp)
    8000076c:	69a2                	ld	s3,8(sp)
    8000076e:	6a02                	ld	s4,0(sp)
    80000770:	6145                	addi	sp,sp,48
    80000772:	8082                	ret
    80000774:	00007517          	auipc	a0,0x7
    80000778:	9a450513          	addi	a0,a0,-1628 # 80007118 <etext+0x118>
    8000077c:	487040ef          	jal	80005402 <panic>

0000000080000780 <uvmdealloc>:
    80000780:	1101                	addi	sp,sp,-32
    80000782:	ec06                	sd	ra,24(sp)
    80000784:	e822                	sd	s0,16(sp)
    80000786:	e426                	sd	s1,8(sp)
    80000788:	1000                	addi	s0,sp,32
    8000078a:	84ae                	mv	s1,a1
    8000078c:	00b67d63          	bgeu	a2,a1,800007a6 <uvmdealloc+0x26>
    80000790:	84b2                	mv	s1,a2
    80000792:	6785                	lui	a5,0x1
    80000794:	17fd                	addi	a5,a5,-1 # fff <_entry-0x7ffff001>
    80000796:	00f60733          	add	a4,a2,a5
    8000079a:	76fd                	lui	a3,0xfffff
    8000079c:	8f75                	and	a4,a4,a3
    8000079e:	97ae                	add	a5,a5,a1
    800007a0:	8ff5                	and	a5,a5,a3
    800007a2:	00f76863          	bltu	a4,a5,800007b2 <uvmdealloc+0x32>
    800007a6:	8526                	mv	a0,s1
    800007a8:	60e2                	ld	ra,24(sp)
    800007aa:	6442                	ld	s0,16(sp)
    800007ac:	64a2                	ld	s1,8(sp)
    800007ae:	6105                	addi	sp,sp,32
    800007b0:	8082                	ret
    800007b2:	8f99                	sub	a5,a5,a4
    800007b4:	83b1                	srli	a5,a5,0xc
    800007b6:	4685                	li	a3,1
    800007b8:	0007861b          	sext.w	a2,a5
    800007bc:	85ba                	mv	a1,a4
    800007be:	e83ff0ef          	jal	80000640 <uvmunmap>
    800007c2:	b7d5                	j	800007a6 <uvmdealloc+0x26>

00000000800007c4 <uvmalloc>:
    800007c4:	08b66f63          	bltu	a2,a1,80000862 <uvmalloc+0x9e>
    800007c8:	7139                	addi	sp,sp,-64
    800007ca:	fc06                	sd	ra,56(sp)
    800007cc:	f822                	sd	s0,48(sp)
    800007ce:	ec4e                	sd	s3,24(sp)
    800007d0:	e852                	sd	s4,16(sp)
    800007d2:	e456                	sd	s5,8(sp)
    800007d4:	0080                	addi	s0,sp,64
    800007d6:	8aaa                	mv	s5,a0
    800007d8:	8a32                	mv	s4,a2
    800007da:	6785                	lui	a5,0x1
    800007dc:	17fd                	addi	a5,a5,-1 # fff <_entry-0x7ffff001>
    800007de:	95be                	add	a1,a1,a5
    800007e0:	77fd                	lui	a5,0xfffff
    800007e2:	00f5f9b3          	and	s3,a1,a5
    800007e6:	08c9f063          	bgeu	s3,a2,80000866 <uvmalloc+0xa2>
    800007ea:	f426                	sd	s1,40(sp)
    800007ec:	f04a                	sd	s2,32(sp)
    800007ee:	e05a                	sd	s6,0(sp)
    800007f0:	894e                	mv	s2,s3
    800007f2:	0126eb13          	ori	s6,a3,18
    800007f6:	909ff0ef          	jal	800000fe <kalloc>
    800007fa:	84aa                	mv	s1,a0
    800007fc:	c515                	beqz	a0,80000828 <uvmalloc+0x64>
    800007fe:	6605                	lui	a2,0x1
    80000800:	4581                	li	a1,0
    80000802:	94dff0ef          	jal	8000014e <memset>
    80000806:	875a                	mv	a4,s6
    80000808:	86a6                	mv	a3,s1
    8000080a:	6605                	lui	a2,0x1
    8000080c:	85ca                	mv	a1,s2
    8000080e:	8556                	mv	a0,s5
    80000810:	c8bff0ef          	jal	8000049a <mappages>
    80000814:	e915                	bnez	a0,80000848 <uvmalloc+0x84>
    80000816:	6785                	lui	a5,0x1
    80000818:	993e                	add	s2,s2,a5
    8000081a:	fd496ee3          	bltu	s2,s4,800007f6 <uvmalloc+0x32>
    8000081e:	8552                	mv	a0,s4
    80000820:	74a2                	ld	s1,40(sp)
    80000822:	7902                	ld	s2,32(sp)
    80000824:	6b02                	ld	s6,0(sp)
    80000826:	a811                	j	8000083a <uvmalloc+0x76>
    80000828:	864e                	mv	a2,s3
    8000082a:	85ca                	mv	a1,s2
    8000082c:	8556                	mv	a0,s5
    8000082e:	f53ff0ef          	jal	80000780 <uvmdealloc>
    80000832:	4501                	li	a0,0
    80000834:	74a2                	ld	s1,40(sp)
    80000836:	7902                	ld	s2,32(sp)
    80000838:	6b02                	ld	s6,0(sp)
    8000083a:	70e2                	ld	ra,56(sp)
    8000083c:	7442                	ld	s0,48(sp)
    8000083e:	69e2                	ld	s3,24(sp)
    80000840:	6a42                	ld	s4,16(sp)
    80000842:	6aa2                	ld	s5,8(sp)
    80000844:	6121                	addi	sp,sp,64
    80000846:	8082                	ret
    80000848:	8526                	mv	a0,s1
    8000084a:	fd2ff0ef          	jal	8000001c <kfree>
    8000084e:	864e                	mv	a2,s3
    80000850:	85ca                	mv	a1,s2
    80000852:	8556                	mv	a0,s5
    80000854:	f2dff0ef          	jal	80000780 <uvmdealloc>
    80000858:	4501                	li	a0,0
    8000085a:	74a2                	ld	s1,40(sp)
    8000085c:	7902                	ld	s2,32(sp)
    8000085e:	6b02                	ld	s6,0(sp)
    80000860:	bfe9                	j	8000083a <uvmalloc+0x76>
    80000862:	852e                	mv	a0,a1
    80000864:	8082                	ret
    80000866:	8532                	mv	a0,a2
    80000868:	bfc9                	j	8000083a <uvmalloc+0x76>

000000008000086a <freewalk>:
    8000086a:	7179                	addi	sp,sp,-48
    8000086c:	f406                	sd	ra,40(sp)
    8000086e:	f022                	sd	s0,32(sp)
    80000870:	ec26                	sd	s1,24(sp)
    80000872:	e84a                	sd	s2,16(sp)
    80000874:	e44e                	sd	s3,8(sp)
    80000876:	e052                	sd	s4,0(sp)
    80000878:	1800                	addi	s0,sp,48
    8000087a:	8a2a                	mv	s4,a0
    8000087c:	84aa                	mv	s1,a0
    8000087e:	6905                	lui	s2,0x1
    80000880:	992a                	add	s2,s2,a0
    80000882:	4985                	li	s3,1
    80000884:	a819                	j	8000089a <freewalk+0x30>
    80000886:	83a9                	srli	a5,a5,0xa
    80000888:	00c79513          	slli	a0,a5,0xc
    8000088c:	fdfff0ef          	jal	8000086a <freewalk>
    80000890:	0004b023          	sd	zero,0(s1)
    80000894:	04a1                	addi	s1,s1,8
    80000896:	01248f63          	beq	s1,s2,800008b4 <freewalk+0x4a>
    8000089a:	609c                	ld	a5,0(s1)
    8000089c:	00f7f713          	andi	a4,a5,15
    800008a0:	ff3703e3          	beq	a4,s3,80000886 <freewalk+0x1c>
    800008a4:	8b85                	andi	a5,a5,1
    800008a6:	d7fd                	beqz	a5,80000894 <freewalk+0x2a>
    800008a8:	00007517          	auipc	a0,0x7
    800008ac:	89050513          	addi	a0,a0,-1904 # 80007138 <etext+0x138>
    800008b0:	353040ef          	jal	80005402 <panic>
    800008b4:	8552                	mv	a0,s4
    800008b6:	f66ff0ef          	jal	8000001c <kfree>
    800008ba:	70a2                	ld	ra,40(sp)
    800008bc:	7402                	ld	s0,32(sp)
    800008be:	64e2                	ld	s1,24(sp)
    800008c0:	6942                	ld	s2,16(sp)
    800008c2:	69a2                	ld	s3,8(sp)
    800008c4:	6a02                	ld	s4,0(sp)
    800008c6:	6145                	addi	sp,sp,48
    800008c8:	8082                	ret

00000000800008ca <uvmfree>:
    800008ca:	1101                	addi	sp,sp,-32
    800008cc:	ec06                	sd	ra,24(sp)
    800008ce:	e822                	sd	s0,16(sp)
    800008d0:	e426                	sd	s1,8(sp)
    800008d2:	1000                	addi	s0,sp,32
    800008d4:	84aa                	mv	s1,a0
    800008d6:	e989                	bnez	a1,800008e8 <uvmfree+0x1e>
    800008d8:	8526                	mv	a0,s1
    800008da:	f91ff0ef          	jal	8000086a <freewalk>
    800008de:	60e2                	ld	ra,24(sp)
    800008e0:	6442                	ld	s0,16(sp)
    800008e2:	64a2                	ld	s1,8(sp)
    800008e4:	6105                	addi	sp,sp,32
    800008e6:	8082                	ret
    800008e8:	6785                	lui	a5,0x1
    800008ea:	17fd                	addi	a5,a5,-1 # fff <_entry-0x7ffff001>
    800008ec:	95be                	add	a1,a1,a5
    800008ee:	4685                	li	a3,1
    800008f0:	00c5d613          	srli	a2,a1,0xc
    800008f4:	4581                	li	a1,0
    800008f6:	d4bff0ef          	jal	80000640 <uvmunmap>
    800008fa:	bff9                	j	800008d8 <uvmfree+0xe>

00000000800008fc <uvmcopy>:
    800008fc:	c65d                	beqz	a2,800009aa <uvmcopy+0xae>
    800008fe:	715d                	addi	sp,sp,-80
    80000900:	e486                	sd	ra,72(sp)
    80000902:	e0a2                	sd	s0,64(sp)
    80000904:	fc26                	sd	s1,56(sp)
    80000906:	f84a                	sd	s2,48(sp)
    80000908:	f44e                	sd	s3,40(sp)
    8000090a:	f052                	sd	s4,32(sp)
    8000090c:	ec56                	sd	s5,24(sp)
    8000090e:	e85a                	sd	s6,16(sp)
    80000910:	e45e                	sd	s7,8(sp)
    80000912:	0880                	addi	s0,sp,80
    80000914:	8b2a                	mv	s6,a0
    80000916:	8aae                	mv	s5,a1
    80000918:	8a32                	mv	s4,a2
    8000091a:	4981                	li	s3,0
    8000091c:	4601                	li	a2,0
    8000091e:	85ce                	mv	a1,s3
    80000920:	855a                	mv	a0,s6
    80000922:	aa1ff0ef          	jal	800003c2 <walk>
    80000926:	c121                	beqz	a0,80000966 <uvmcopy+0x6a>
    80000928:	6118                	ld	a4,0(a0)
    8000092a:	00177793          	andi	a5,a4,1
    8000092e:	c3b1                	beqz	a5,80000972 <uvmcopy+0x76>
    80000930:	00a75593          	srli	a1,a4,0xa
    80000934:	00c59b93          	slli	s7,a1,0xc
    80000938:	3ff77493          	andi	s1,a4,1023
    8000093c:	fc2ff0ef          	jal	800000fe <kalloc>
    80000940:	892a                	mv	s2,a0
    80000942:	c129                	beqz	a0,80000984 <uvmcopy+0x88>
    80000944:	6605                	lui	a2,0x1
    80000946:	85de                	mv	a1,s7
    80000948:	863ff0ef          	jal	800001aa <memmove>
    8000094c:	8726                	mv	a4,s1
    8000094e:	86ca                	mv	a3,s2
    80000950:	6605                	lui	a2,0x1
    80000952:	85ce                	mv	a1,s3
    80000954:	8556                	mv	a0,s5
    80000956:	b45ff0ef          	jal	8000049a <mappages>
    8000095a:	e115                	bnez	a0,8000097e <uvmcopy+0x82>
    8000095c:	6785                	lui	a5,0x1
    8000095e:	99be                	add	s3,s3,a5
    80000960:	fb49eee3          	bltu	s3,s4,8000091c <uvmcopy+0x20>
    80000964:	a805                	j	80000994 <uvmcopy+0x98>
    80000966:	00006517          	auipc	a0,0x6
    8000096a:	7e250513          	addi	a0,a0,2018 # 80007148 <etext+0x148>
    8000096e:	295040ef          	jal	80005402 <panic>
    80000972:	00006517          	auipc	a0,0x6
    80000976:	7f650513          	addi	a0,a0,2038 # 80007168 <etext+0x168>
    8000097a:	289040ef          	jal	80005402 <panic>
    8000097e:	854a                	mv	a0,s2
    80000980:	e9cff0ef          	jal	8000001c <kfree>
    80000984:	4685                	li	a3,1
    80000986:	00c9d613          	srli	a2,s3,0xc
    8000098a:	4581                	li	a1,0
    8000098c:	8556                	mv	a0,s5
    8000098e:	cb3ff0ef          	jal	80000640 <uvmunmap>
    80000992:	557d                	li	a0,-1
    80000994:	60a6                	ld	ra,72(sp)
    80000996:	6406                	ld	s0,64(sp)
    80000998:	74e2                	ld	s1,56(sp)
    8000099a:	7942                	ld	s2,48(sp)
    8000099c:	79a2                	ld	s3,40(sp)
    8000099e:	7a02                	ld	s4,32(sp)
    800009a0:	6ae2                	ld	s5,24(sp)
    800009a2:	6b42                	ld	s6,16(sp)
    800009a4:	6ba2                	ld	s7,8(sp)
    800009a6:	6161                	addi	sp,sp,80
    800009a8:	8082                	ret
    800009aa:	4501                	li	a0,0
    800009ac:	8082                	ret

00000000800009ae <uvmclear>:
    800009ae:	1141                	addi	sp,sp,-16
    800009b0:	e406                	sd	ra,8(sp)
    800009b2:	e022                	sd	s0,0(sp)
    800009b4:	0800                	addi	s0,sp,16
    800009b6:	4601                	li	a2,0
    800009b8:	a0bff0ef          	jal	800003c2 <walk>
    800009bc:	c901                	beqz	a0,800009cc <uvmclear+0x1e>
    800009be:	611c                	ld	a5,0(a0)
    800009c0:	9bbd                	andi	a5,a5,-17
    800009c2:	e11c                	sd	a5,0(a0)
    800009c4:	60a2                	ld	ra,8(sp)
    800009c6:	6402                	ld	s0,0(sp)
    800009c8:	0141                	addi	sp,sp,16
    800009ca:	8082                	ret
    800009cc:	00006517          	auipc	a0,0x6
    800009d0:	7bc50513          	addi	a0,a0,1980 # 80007188 <etext+0x188>
    800009d4:	22f040ef          	jal	80005402 <panic>

00000000800009d8 <copyout>:
    800009d8:	cad1                	beqz	a3,80000a6c <copyout+0x94>
    800009da:	711d                	addi	sp,sp,-96
    800009dc:	ec86                	sd	ra,88(sp)
    800009de:	e8a2                	sd	s0,80(sp)
    800009e0:	e4a6                	sd	s1,72(sp)
    800009e2:	fc4e                	sd	s3,56(sp)
    800009e4:	f456                	sd	s5,40(sp)
    800009e6:	f05a                	sd	s6,32(sp)
    800009e8:	ec5e                	sd	s7,24(sp)
    800009ea:	1080                	addi	s0,sp,96
    800009ec:	8baa                	mv	s7,a0
    800009ee:	8aae                	mv	s5,a1
    800009f0:	8b32                	mv	s6,a2
    800009f2:	89b6                	mv	s3,a3
    800009f4:	74fd                	lui	s1,0xfffff
    800009f6:	8ced                	and	s1,s1,a1
    800009f8:	57fd                	li	a5,-1
    800009fa:	83e9                	srli	a5,a5,0x1a
    800009fc:	0697ea63          	bltu	a5,s1,80000a70 <copyout+0x98>
    80000a00:	e0ca                	sd	s2,64(sp)
    80000a02:	f852                	sd	s4,48(sp)
    80000a04:	e862                	sd	s8,16(sp)
    80000a06:	e466                	sd	s9,8(sp)
    80000a08:	e06a                	sd	s10,0(sp)
    80000a0a:	4cd5                	li	s9,21
    80000a0c:	6d05                	lui	s10,0x1
    80000a0e:	8c3e                	mv	s8,a5
    80000a10:	a025                	j	80000a38 <copyout+0x60>
    80000a12:	83a9                	srli	a5,a5,0xa
    80000a14:	07b2                	slli	a5,a5,0xc
    80000a16:	409a8533          	sub	a0,s5,s1
    80000a1a:	0009061b          	sext.w	a2,s2
    80000a1e:	85da                	mv	a1,s6
    80000a20:	953e                	add	a0,a0,a5
    80000a22:	f88ff0ef          	jal	800001aa <memmove>
    80000a26:	412989b3          	sub	s3,s3,s2
    80000a2a:	9b4a                	add	s6,s6,s2
    80000a2c:	02098963          	beqz	s3,80000a5e <copyout+0x86>
    80000a30:	054c6263          	bltu	s8,s4,80000a74 <copyout+0x9c>
    80000a34:	84d2                	mv	s1,s4
    80000a36:	8ad2                	mv	s5,s4
    80000a38:	4601                	li	a2,0
    80000a3a:	85a6                	mv	a1,s1
    80000a3c:	855e                	mv	a0,s7
    80000a3e:	985ff0ef          	jal	800003c2 <walk>
    80000a42:	c121                	beqz	a0,80000a82 <copyout+0xaa>
    80000a44:	611c                	ld	a5,0(a0)
    80000a46:	0157f713          	andi	a4,a5,21
    80000a4a:	05971b63          	bne	a4,s9,80000aa0 <copyout+0xc8>
    80000a4e:	01a48a33          	add	s4,s1,s10
    80000a52:	415a0933          	sub	s2,s4,s5
    80000a56:	fb29fee3          	bgeu	s3,s2,80000a12 <copyout+0x3a>
    80000a5a:	894e                	mv	s2,s3
    80000a5c:	bf5d                	j	80000a12 <copyout+0x3a>
    80000a5e:	4501                	li	a0,0
    80000a60:	6906                	ld	s2,64(sp)
    80000a62:	7a42                	ld	s4,48(sp)
    80000a64:	6c42                	ld	s8,16(sp)
    80000a66:	6ca2                	ld	s9,8(sp)
    80000a68:	6d02                	ld	s10,0(sp)
    80000a6a:	a015                	j	80000a8e <copyout+0xb6>
    80000a6c:	4501                	li	a0,0
    80000a6e:	8082                	ret
    80000a70:	557d                	li	a0,-1
    80000a72:	a831                	j	80000a8e <copyout+0xb6>
    80000a74:	557d                	li	a0,-1
    80000a76:	6906                	ld	s2,64(sp)
    80000a78:	7a42                	ld	s4,48(sp)
    80000a7a:	6c42                	ld	s8,16(sp)
    80000a7c:	6ca2                	ld	s9,8(sp)
    80000a7e:	6d02                	ld	s10,0(sp)
    80000a80:	a039                	j	80000a8e <copyout+0xb6>
    80000a82:	557d                	li	a0,-1
    80000a84:	6906                	ld	s2,64(sp)
    80000a86:	7a42                	ld	s4,48(sp)
    80000a88:	6c42                	ld	s8,16(sp)
    80000a8a:	6ca2                	ld	s9,8(sp)
    80000a8c:	6d02                	ld	s10,0(sp)
    80000a8e:	60e6                	ld	ra,88(sp)
    80000a90:	6446                	ld	s0,80(sp)
    80000a92:	64a6                	ld	s1,72(sp)
    80000a94:	79e2                	ld	s3,56(sp)
    80000a96:	7aa2                	ld	s5,40(sp)
    80000a98:	7b02                	ld	s6,32(sp)
    80000a9a:	6be2                	ld	s7,24(sp)
    80000a9c:	6125                	addi	sp,sp,96
    80000a9e:	8082                	ret
    80000aa0:	557d                	li	a0,-1
    80000aa2:	6906                	ld	s2,64(sp)
    80000aa4:	7a42                	ld	s4,48(sp)
    80000aa6:	6c42                	ld	s8,16(sp)
    80000aa8:	6ca2                	ld	s9,8(sp)
    80000aaa:	6d02                	ld	s10,0(sp)
    80000aac:	b7cd                	j	80000a8e <copyout+0xb6>

0000000080000aae <copyin>:
    80000aae:	c6a5                	beqz	a3,80000b16 <copyin+0x68>
    80000ab0:	715d                	addi	sp,sp,-80
    80000ab2:	e486                	sd	ra,72(sp)
    80000ab4:	e0a2                	sd	s0,64(sp)
    80000ab6:	fc26                	sd	s1,56(sp)
    80000ab8:	f84a                	sd	s2,48(sp)
    80000aba:	f44e                	sd	s3,40(sp)
    80000abc:	f052                	sd	s4,32(sp)
    80000abe:	ec56                	sd	s5,24(sp)
    80000ac0:	e85a                	sd	s6,16(sp)
    80000ac2:	e45e                	sd	s7,8(sp)
    80000ac4:	e062                	sd	s8,0(sp)
    80000ac6:	0880                	addi	s0,sp,80
    80000ac8:	8b2a                	mv	s6,a0
    80000aca:	8a2e                	mv	s4,a1
    80000acc:	8c32                	mv	s8,a2
    80000ace:	89b6                	mv	s3,a3
    80000ad0:	7bfd                	lui	s7,0xfffff
    80000ad2:	6a85                	lui	s5,0x1
    80000ad4:	a00d                	j	80000af6 <copyin+0x48>
    80000ad6:	018505b3          	add	a1,a0,s8
    80000ada:	0004861b          	sext.w	a2,s1
    80000ade:	412585b3          	sub	a1,a1,s2
    80000ae2:	8552                	mv	a0,s4
    80000ae4:	ec6ff0ef          	jal	800001aa <memmove>
    80000ae8:	409989b3          	sub	s3,s3,s1
    80000aec:	9a26                	add	s4,s4,s1
    80000aee:	01590c33          	add	s8,s2,s5
    80000af2:	02098063          	beqz	s3,80000b12 <copyin+0x64>
    80000af6:	017c7933          	and	s2,s8,s7
    80000afa:	85ca                	mv	a1,s2
    80000afc:	855a                	mv	a0,s6
    80000afe:	95fff0ef          	jal	8000045c <walkaddr>
    80000b02:	cd01                	beqz	a0,80000b1a <copyin+0x6c>
    80000b04:	418904b3          	sub	s1,s2,s8
    80000b08:	94d6                	add	s1,s1,s5
    80000b0a:	fc99f6e3          	bgeu	s3,s1,80000ad6 <copyin+0x28>
    80000b0e:	84ce                	mv	s1,s3
    80000b10:	b7d9                	j	80000ad6 <copyin+0x28>
    80000b12:	4501                	li	a0,0
    80000b14:	a021                	j	80000b1c <copyin+0x6e>
    80000b16:	4501                	li	a0,0
    80000b18:	8082                	ret
    80000b1a:	557d                	li	a0,-1
    80000b1c:	60a6                	ld	ra,72(sp)
    80000b1e:	6406                	ld	s0,64(sp)
    80000b20:	74e2                	ld	s1,56(sp)
    80000b22:	7942                	ld	s2,48(sp)
    80000b24:	79a2                	ld	s3,40(sp)
    80000b26:	7a02                	ld	s4,32(sp)
    80000b28:	6ae2                	ld	s5,24(sp)
    80000b2a:	6b42                	ld	s6,16(sp)
    80000b2c:	6ba2                	ld	s7,8(sp)
    80000b2e:	6c02                	ld	s8,0(sp)
    80000b30:	6161                	addi	sp,sp,80
    80000b32:	8082                	ret

0000000080000b34 <copyinstr>:
    80000b34:	c6dd                	beqz	a3,80000be2 <copyinstr+0xae>
    80000b36:	715d                	addi	sp,sp,-80
    80000b38:	e486                	sd	ra,72(sp)
    80000b3a:	e0a2                	sd	s0,64(sp)
    80000b3c:	fc26                	sd	s1,56(sp)
    80000b3e:	f84a                	sd	s2,48(sp)
    80000b40:	f44e                	sd	s3,40(sp)
    80000b42:	f052                	sd	s4,32(sp)
    80000b44:	ec56                	sd	s5,24(sp)
    80000b46:	e85a                	sd	s6,16(sp)
    80000b48:	e45e                	sd	s7,8(sp)
    80000b4a:	0880                	addi	s0,sp,80
    80000b4c:	8a2a                	mv	s4,a0
    80000b4e:	8b2e                	mv	s6,a1
    80000b50:	8bb2                	mv	s7,a2
    80000b52:	8936                	mv	s2,a3
    80000b54:	7afd                	lui	s5,0xfffff
    80000b56:	6985                	lui	s3,0x1
    80000b58:	a825                	j	80000b90 <copyinstr+0x5c>
    80000b5a:	00078023          	sb	zero,0(a5) # 1000 <_entry-0x7ffff000>
    80000b5e:	4785                	li	a5,1
    80000b60:	37fd                	addiw	a5,a5,-1
    80000b62:	0007851b          	sext.w	a0,a5
    80000b66:	60a6                	ld	ra,72(sp)
    80000b68:	6406                	ld	s0,64(sp)
    80000b6a:	74e2                	ld	s1,56(sp)
    80000b6c:	7942                	ld	s2,48(sp)
    80000b6e:	79a2                	ld	s3,40(sp)
    80000b70:	7a02                	ld	s4,32(sp)
    80000b72:	6ae2                	ld	s5,24(sp)
    80000b74:	6b42                	ld	s6,16(sp)
    80000b76:	6ba2                	ld	s7,8(sp)
    80000b78:	6161                	addi	sp,sp,80
    80000b7a:	8082                	ret
    80000b7c:	fff90713          	addi	a4,s2,-1 # fff <_entry-0x7ffff001>
    80000b80:	9742                	add	a4,a4,a6
    80000b82:	40b70933          	sub	s2,a4,a1
    80000b86:	01348bb3          	add	s7,s1,s3
    80000b8a:	04e58463          	beq	a1,a4,80000bd2 <copyinstr+0x9e>
    80000b8e:	8b3e                	mv	s6,a5
    80000b90:	015bf4b3          	and	s1,s7,s5
    80000b94:	85a6                	mv	a1,s1
    80000b96:	8552                	mv	a0,s4
    80000b98:	8c5ff0ef          	jal	8000045c <walkaddr>
    80000b9c:	cd0d                	beqz	a0,80000bd6 <copyinstr+0xa2>
    80000b9e:	417486b3          	sub	a3,s1,s7
    80000ba2:	96ce                	add	a3,a3,s3
    80000ba4:	00d97363          	bgeu	s2,a3,80000baa <copyinstr+0x76>
    80000ba8:	86ca                	mv	a3,s2
    80000baa:	955e                	add	a0,a0,s7
    80000bac:	8d05                	sub	a0,a0,s1
    80000bae:	c695                	beqz	a3,80000bda <copyinstr+0xa6>
    80000bb0:	87da                	mv	a5,s6
    80000bb2:	885a                	mv	a6,s6
    80000bb4:	41650633          	sub	a2,a0,s6
    80000bb8:	96da                	add	a3,a3,s6
    80000bba:	85be                	mv	a1,a5
    80000bbc:	00f60733          	add	a4,a2,a5
    80000bc0:	00074703          	lbu	a4,0(a4)
    80000bc4:	db59                	beqz	a4,80000b5a <copyinstr+0x26>
    80000bc6:	00e78023          	sb	a4,0(a5)
    80000bca:	0785                	addi	a5,a5,1
    80000bcc:	fed797e3          	bne	a5,a3,80000bba <copyinstr+0x86>
    80000bd0:	b775                	j	80000b7c <copyinstr+0x48>
    80000bd2:	4781                	li	a5,0
    80000bd4:	b771                	j	80000b60 <copyinstr+0x2c>
    80000bd6:	557d                	li	a0,-1
    80000bd8:	b779                	j	80000b66 <copyinstr+0x32>
    80000bda:	6b85                	lui	s7,0x1
    80000bdc:	9ba6                	add	s7,s7,s1
    80000bde:	87da                	mv	a5,s6
    80000be0:	b77d                	j	80000b8e <copyinstr+0x5a>
    80000be2:	4781                	li	a5,0
    80000be4:	37fd                	addiw	a5,a5,-1
    80000be6:	0007851b          	sext.w	a0,a5
    80000bea:	8082                	ret

0000000080000bec <proc_mapstacks>:
// Allocate a page for each process's kernel stack.
// Map it high in memory, followed by an invalid
// guard page.
void
proc_mapstacks(pagetable_t kpgtbl)
{
    80000bec:	7139                	addi	sp,sp,-64
    80000bee:	fc06                	sd	ra,56(sp)
    80000bf0:	f822                	sd	s0,48(sp)
    80000bf2:	f426                	sd	s1,40(sp)
    80000bf4:	f04a                	sd	s2,32(sp)
    80000bf6:	ec4e                	sd	s3,24(sp)
    80000bf8:	e852                	sd	s4,16(sp)
    80000bfa:	e456                	sd	s5,8(sp)
    80000bfc:	e05a                	sd	s6,0(sp)
    80000bfe:	0080                	addi	s0,sp,64
    80000c00:	8a2a                	mv	s4,a0
  struct proc *p;
  
  for(p = proc; p < &proc[NPROC]; p++) {
    80000c02:	0000a497          	auipc	s1,0xa
    80000c06:	a5e48493          	addi	s1,s1,-1442 # 8000a660 <proc>
    char *pa = kalloc();
    if(pa == 0)
      panic("kalloc");
    uint64 va = KSTACK((int) (p - proc));
    80000c0a:	8b26                	mv	s6,s1
    80000c0c:	004fd937          	lui	s2,0x4fd
    80000c10:	3f590913          	addi	s2,s2,1013 # 4fd3f5 <_entry-0x7fb02c0b>
    80000c14:	0942                	slli	s2,s2,0x10
    80000c16:	d3f90913          	addi	s2,s2,-705
    80000c1a:	0932                	slli	s2,s2,0xc
    80000c1c:	4fd90913          	addi	s2,s2,1277
    80000c20:	0932                	slli	s2,s2,0xc
    80000c22:	3f590913          	addi	s2,s2,1013
    80000c26:	040009b7          	lui	s3,0x4000
    80000c2a:	19fd                	addi	s3,s3,-1 # 3ffffff <_entry-0x7c000001>
    80000c2c:	09b2                	slli	s3,s3,0xc
  for(p = proc; p < &proc[NPROC]; p++) {
    80000c2e:	00015a97          	auipc	s5,0x15
    80000c32:	432a8a93          	addi	s5,s5,1074 # 80016060 <tickslock>
    char *pa = kalloc();
    80000c36:	cc8ff0ef          	jal	800000fe <kalloc>
    80000c3a:	862a                	mv	a2,a0
    if(pa == 0)
    80000c3c:	cd15                	beqz	a0,80000c78 <proc_mapstacks+0x8c>
    uint64 va = KSTACK((int) (p - proc));
    80000c3e:	416485b3          	sub	a1,s1,s6
    80000c42:	858d                	srai	a1,a1,0x3
    80000c44:	032585b3          	mul	a1,a1,s2
    80000c48:	2585                	addiw	a1,a1,1
    80000c4a:	00d5959b          	slliw	a1,a1,0xd
    kvmmap(kpgtbl, va, (uint64)pa, PGSIZE, PTE_R | PTE_W);
    80000c4e:	4719                	li	a4,6
    80000c50:	6685                	lui	a3,0x1
    80000c52:	40b985b3          	sub	a1,s3,a1
    80000c56:	8552                	mv	a0,s4
    80000c58:	8f3ff0ef          	jal	8000054a <kvmmap>
  for(p = proc; p < &proc[NPROC]; p++) {
    80000c5c:	2e848493          	addi	s1,s1,744
    80000c60:	fd549be3          	bne	s1,s5,80000c36 <proc_mapstacks+0x4a>
  }
}
    80000c64:	70e2                	ld	ra,56(sp)
    80000c66:	7442                	ld	s0,48(sp)
    80000c68:	74a2                	ld	s1,40(sp)
    80000c6a:	7902                	ld	s2,32(sp)
    80000c6c:	69e2                	ld	s3,24(sp)
    80000c6e:	6a42                	ld	s4,16(sp)
    80000c70:	6aa2                	ld	s5,8(sp)
    80000c72:	6b02                	ld	s6,0(sp)
    80000c74:	6121                	addi	sp,sp,64
    80000c76:	8082                	ret
      panic("kalloc");
    80000c78:	00006517          	auipc	a0,0x6
    80000c7c:	52050513          	addi	a0,a0,1312 # 80007198 <etext+0x198>
    80000c80:	782040ef          	jal	80005402 <panic>

0000000080000c84 <procinit>:

// initialize the proc table.
void
procinit(void)
{
    80000c84:	7139                	addi	sp,sp,-64
    80000c86:	fc06                	sd	ra,56(sp)
    80000c88:	f822                	sd	s0,48(sp)
    80000c8a:	f426                	sd	s1,40(sp)
    80000c8c:	f04a                	sd	s2,32(sp)
    80000c8e:	ec4e                	sd	s3,24(sp)
    80000c90:	e852                	sd	s4,16(sp)
    80000c92:	e456                	sd	s5,8(sp)
    80000c94:	e05a                	sd	s6,0(sp)
    80000c96:	0080                	addi	s0,sp,64
  struct proc *p;
  
  initlock(&pid_lock, "nextpid");
    80000c98:	00006597          	auipc	a1,0x6
    80000c9c:	50858593          	addi	a1,a1,1288 # 800071a0 <etext+0x1a0>
    80000ca0:	00009517          	auipc	a0,0x9
    80000ca4:	59050513          	addi	a0,a0,1424 # 8000a230 <pid_lock>
    80000ca8:	209040ef          	jal	800056b0 <initlock>
  initlock(&wait_lock, "wait_lock");
    80000cac:	00006597          	auipc	a1,0x6
    80000cb0:	4fc58593          	addi	a1,a1,1276 # 800071a8 <etext+0x1a8>
    80000cb4:	00009517          	auipc	a0,0x9
    80000cb8:	59450513          	addi	a0,a0,1428 # 8000a248 <wait_lock>
    80000cbc:	1f5040ef          	jal	800056b0 <initlock>
  for(p = proc; p < &proc[NPROC]; p++) {
    80000cc0:	0000a497          	auipc	s1,0xa
    80000cc4:	9a048493          	addi	s1,s1,-1632 # 8000a660 <proc>
      initlock(&p->lock, "proc");
    80000cc8:	00006b17          	auipc	s6,0x6
    80000ccc:	4f0b0b13          	addi	s6,s6,1264 # 800071b8 <etext+0x1b8>
      p->state = UNUSED;
      p->kstack = KSTACK((int) (p - proc));
    80000cd0:	8aa6                	mv	s5,s1
    80000cd2:	004fd937          	lui	s2,0x4fd
    80000cd6:	3f590913          	addi	s2,s2,1013 # 4fd3f5 <_entry-0x7fb02c0b>
    80000cda:	0942                	slli	s2,s2,0x10
    80000cdc:	d3f90913          	addi	s2,s2,-705
    80000ce0:	0932                	slli	s2,s2,0xc
    80000ce2:	4fd90913          	addi	s2,s2,1277
    80000ce6:	0932                	slli	s2,s2,0xc
    80000ce8:	3f590913          	addi	s2,s2,1013
    80000cec:	040009b7          	lui	s3,0x4000
    80000cf0:	19fd                	addi	s3,s3,-1 # 3ffffff <_entry-0x7c000001>
    80000cf2:	09b2                	slli	s3,s3,0xc
  for(p = proc; p < &proc[NPROC]; p++) {
    80000cf4:	00015a17          	auipc	s4,0x15
    80000cf8:	36ca0a13          	addi	s4,s4,876 # 80016060 <tickslock>
      initlock(&p->lock, "proc");
    80000cfc:	85da                	mv	a1,s6
    80000cfe:	8526                	mv	a0,s1
    80000d00:	1b1040ef          	jal	800056b0 <initlock>
      p->state = UNUSED;
    80000d04:	0004ac23          	sw	zero,24(s1)
      p->kstack = KSTACK((int) (p - proc));
    80000d08:	415487b3          	sub	a5,s1,s5
    80000d0c:	878d                	srai	a5,a5,0x3
    80000d0e:	032787b3          	mul	a5,a5,s2
    80000d12:	2785                	addiw	a5,a5,1
    80000d14:	00d7979b          	slliw	a5,a5,0xd
    80000d18:	40f987b3          	sub	a5,s3,a5
    80000d1c:	e0bc                	sd	a5,64(s1)
  for(p = proc; p < &proc[NPROC]; p++) {
    80000d1e:	2e848493          	addi	s1,s1,744
    80000d22:	fd449de3          	bne	s1,s4,80000cfc <procinit+0x78>
  }
}
    80000d26:	70e2                	ld	ra,56(sp)
    80000d28:	7442                	ld	s0,48(sp)
    80000d2a:	74a2                	ld	s1,40(sp)
    80000d2c:	7902                	ld	s2,32(sp)
    80000d2e:	69e2                	ld	s3,24(sp)
    80000d30:	6a42                	ld	s4,16(sp)
    80000d32:	6aa2                	ld	s5,8(sp)
    80000d34:	6b02                	ld	s6,0(sp)
    80000d36:	6121                	addi	sp,sp,64
    80000d38:	8082                	ret

0000000080000d3a <cpuid>:
// Must be called with interrupts disabled,
// to prevent race with process being moved
// to a different CPU.
int
cpuid()
{
    80000d3a:	1141                	addi	sp,sp,-16
    80000d3c:	e422                	sd	s0,8(sp)
    80000d3e:	0800                	addi	s0,sp,16
// this core's hartid (core number), the index into cpus[].
static inline uint64
r_tp()
{
  uint64 x;
  asm volatile("mv %0, tp" : "=r" (x) );
    80000d40:	8512                	mv	a0,tp
  int id = r_tp();
  return id;
}
    80000d42:	2501                	sext.w	a0,a0
    80000d44:	6422                	ld	s0,8(sp)
    80000d46:	0141                	addi	sp,sp,16
    80000d48:	8082                	ret

0000000080000d4a <mycpu>:

// Return this CPU's cpu struct.
// Interrupts must be disabled.
struct cpu*
mycpu(void)
{
    80000d4a:	1141                	addi	sp,sp,-16
    80000d4c:	e422                	sd	s0,8(sp)
    80000d4e:	0800                	addi	s0,sp,16
    80000d50:	8792                	mv	a5,tp
  int id = cpuid();
  struct cpu *c = &cpus[id];
    80000d52:	2781                	sext.w	a5,a5
    80000d54:	079e                	slli	a5,a5,0x7
  return c;
}
    80000d56:	00009517          	auipc	a0,0x9
    80000d5a:	50a50513          	addi	a0,a0,1290 # 8000a260 <cpus>
    80000d5e:	953e                	add	a0,a0,a5
    80000d60:	6422                	ld	s0,8(sp)
    80000d62:	0141                	addi	sp,sp,16
    80000d64:	8082                	ret

0000000080000d66 <myproc>:

// Return the current struct proc *, or zero if none.
struct proc*
myproc(void)
{
    80000d66:	1101                	addi	sp,sp,-32
    80000d68:	ec06                	sd	ra,24(sp)
    80000d6a:	e822                	sd	s0,16(sp)
    80000d6c:	e426                	sd	s1,8(sp)
    80000d6e:	1000                	addi	s0,sp,32
  push_off();
    80000d70:	181040ef          	jal	800056f0 <push_off>
    80000d74:	8792                	mv	a5,tp
  struct cpu *c = mycpu();
  struct proc *p = c->proc;
    80000d76:	2781                	sext.w	a5,a5
    80000d78:	079e                	slli	a5,a5,0x7
    80000d7a:	00009717          	auipc	a4,0x9
    80000d7e:	4b670713          	addi	a4,a4,1206 # 8000a230 <pid_lock>
    80000d82:	97ba                	add	a5,a5,a4
    80000d84:	7b84                	ld	s1,48(a5)
  pop_off();
    80000d86:	1ef040ef          	jal	80005774 <pop_off>
  return p;
}
    80000d8a:	8526                	mv	a0,s1
    80000d8c:	60e2                	ld	ra,24(sp)
    80000d8e:	6442                	ld	s0,16(sp)
    80000d90:	64a2                	ld	s1,8(sp)
    80000d92:	6105                	addi	sp,sp,32
    80000d94:	8082                	ret

0000000080000d96 <forkret>:

// A fork child's very first scheduling by scheduler()
// will swtch to forkret.
void
forkret(void)
{
    80000d96:	1141                	addi	sp,sp,-16
    80000d98:	e406                	sd	ra,8(sp)
    80000d9a:	e022                	sd	s0,0(sp)
    80000d9c:	0800                	addi	s0,sp,16
  static int first = 1;

  // Still holding p->lock from scheduler.
  release(&myproc()->lock);
    80000d9e:	fc9ff0ef          	jal	80000d66 <myproc>
    80000da2:	227040ef          	jal	800057c8 <release>

  if (first) {
    80000da6:	00009797          	auipc	a5,0x9
    80000daa:	3ca7a783          	lw	a5,970(a5) # 8000a170 <first.1>
    80000dae:	e799                	bnez	a5,80000dbc <forkret+0x26>
    first = 0;
    // ensure other cores see first=0.
    __sync_synchronize();
  }

  usertrapret();
    80000db0:	2bf000ef          	jal	8000186e <usertrapret>
}
    80000db4:	60a2                	ld	ra,8(sp)
    80000db6:	6402                	ld	s0,0(sp)
    80000db8:	0141                	addi	sp,sp,16
    80000dba:	8082                	ret
    fsinit(ROOTDEV);
    80000dbc:	4505                	li	a0,1
    80000dbe:	654010ef          	jal	80002412 <fsinit>
    first = 0;
    80000dc2:	00009797          	auipc	a5,0x9
    80000dc6:	3a07a723          	sw	zero,942(a5) # 8000a170 <first.1>
    __sync_synchronize();
    80000dca:	0330000f          	fence	rw,rw
    80000dce:	b7cd                	j	80000db0 <forkret+0x1a>

0000000080000dd0 <allocpid>:
{
    80000dd0:	1101                	addi	sp,sp,-32
    80000dd2:	ec06                	sd	ra,24(sp)
    80000dd4:	e822                	sd	s0,16(sp)
    80000dd6:	e426                	sd	s1,8(sp)
    80000dd8:	e04a                	sd	s2,0(sp)
    80000dda:	1000                	addi	s0,sp,32
  acquire(&pid_lock);
    80000ddc:	00009917          	auipc	s2,0x9
    80000de0:	45490913          	addi	s2,s2,1108 # 8000a230 <pid_lock>
    80000de4:	854a                	mv	a0,s2
    80000de6:	14b040ef          	jal	80005730 <acquire>
  pid = nextpid;
    80000dea:	00009797          	auipc	a5,0x9
    80000dee:	38a78793          	addi	a5,a5,906 # 8000a174 <nextpid>
    80000df2:	4384                	lw	s1,0(a5)
  nextpid = nextpid + 1;
    80000df4:	0014871b          	addiw	a4,s1,1
    80000df8:	c398                	sw	a4,0(a5)
  release(&pid_lock);
    80000dfa:	854a                	mv	a0,s2
    80000dfc:	1cd040ef          	jal	800057c8 <release>
}
    80000e00:	8526                	mv	a0,s1
    80000e02:	60e2                	ld	ra,24(sp)
    80000e04:	6442                	ld	s0,16(sp)
    80000e06:	64a2                	ld	s1,8(sp)
    80000e08:	6902                	ld	s2,0(sp)
    80000e0a:	6105                	addi	sp,sp,32
    80000e0c:	8082                	ret

0000000080000e0e <proc_pagetable>:
{
    80000e0e:	1101                	addi	sp,sp,-32
    80000e10:	ec06                	sd	ra,24(sp)
    80000e12:	e822                	sd	s0,16(sp)
    80000e14:	e426                	sd	s1,8(sp)
    80000e16:	e04a                	sd	s2,0(sp)
    80000e18:	1000                	addi	s0,sp,32
    80000e1a:	892a                	mv	s2,a0
  pagetable = uvmcreate();
    80000e1c:	8e1ff0ef          	jal	800006fc <uvmcreate>
    80000e20:	84aa                	mv	s1,a0
  if(pagetable == 0)
    80000e22:	cd05                	beqz	a0,80000e5a <proc_pagetable+0x4c>
  if(mappages(pagetable, TRAMPOLINE, PGSIZE,
    80000e24:	4729                	li	a4,10
    80000e26:	00005697          	auipc	a3,0x5
    80000e2a:	1da68693          	addi	a3,a3,474 # 80006000 <_trampoline>
    80000e2e:	6605                	lui	a2,0x1
    80000e30:	040005b7          	lui	a1,0x4000
    80000e34:	15fd                	addi	a1,a1,-1 # 3ffffff <_entry-0x7c000001>
    80000e36:	05b2                	slli	a1,a1,0xc
    80000e38:	e62ff0ef          	jal	8000049a <mappages>
    80000e3c:	02054663          	bltz	a0,80000e68 <proc_pagetable+0x5a>
  if(mappages(pagetable, TRAPFRAME, PGSIZE,
    80000e40:	4719                	li	a4,6
    80000e42:	05893683          	ld	a3,88(s2)
    80000e46:	6605                	lui	a2,0x1
    80000e48:	020005b7          	lui	a1,0x2000
    80000e4c:	15fd                	addi	a1,a1,-1 # 1ffffff <_entry-0x7e000001>
    80000e4e:	05b6                	slli	a1,a1,0xd
    80000e50:	8526                	mv	a0,s1
    80000e52:	e48ff0ef          	jal	8000049a <mappages>
    80000e56:	00054f63          	bltz	a0,80000e74 <proc_pagetable+0x66>
}
    80000e5a:	8526                	mv	a0,s1
    80000e5c:	60e2                	ld	ra,24(sp)
    80000e5e:	6442                	ld	s0,16(sp)
    80000e60:	64a2                	ld	s1,8(sp)
    80000e62:	6902                	ld	s2,0(sp)
    80000e64:	6105                	addi	sp,sp,32
    80000e66:	8082                	ret
    uvmfree(pagetable, 0);
    80000e68:	4581                	li	a1,0
    80000e6a:	8526                	mv	a0,s1
    80000e6c:	a5fff0ef          	jal	800008ca <uvmfree>
    return 0;
    80000e70:	4481                	li	s1,0
    80000e72:	b7e5                	j	80000e5a <proc_pagetable+0x4c>
    uvmunmap(pagetable, TRAMPOLINE, 1, 0);
    80000e74:	4681                	li	a3,0
    80000e76:	4605                	li	a2,1
    80000e78:	040005b7          	lui	a1,0x4000
    80000e7c:	15fd                	addi	a1,a1,-1 # 3ffffff <_entry-0x7c000001>
    80000e7e:	05b2                	slli	a1,a1,0xc
    80000e80:	8526                	mv	a0,s1
    80000e82:	fbeff0ef          	jal	80000640 <uvmunmap>
    uvmfree(pagetable, 0);
    80000e86:	4581                	li	a1,0
    80000e88:	8526                	mv	a0,s1
    80000e8a:	a41ff0ef          	jal	800008ca <uvmfree>
    return 0;
    80000e8e:	4481                	li	s1,0
    80000e90:	b7e9                	j	80000e5a <proc_pagetable+0x4c>

0000000080000e92 <proc_freepagetable>:
{
    80000e92:	1101                	addi	sp,sp,-32
    80000e94:	ec06                	sd	ra,24(sp)
    80000e96:	e822                	sd	s0,16(sp)
    80000e98:	e426                	sd	s1,8(sp)
    80000e9a:	e04a                	sd	s2,0(sp)
    80000e9c:	1000                	addi	s0,sp,32
    80000e9e:	84aa                	mv	s1,a0
    80000ea0:	892e                	mv	s2,a1
  uvmunmap(pagetable, TRAMPOLINE, 1, 0);
    80000ea2:	4681                	li	a3,0
    80000ea4:	4605                	li	a2,1
    80000ea6:	040005b7          	lui	a1,0x4000
    80000eaa:	15fd                	addi	a1,a1,-1 # 3ffffff <_entry-0x7c000001>
    80000eac:	05b2                	slli	a1,a1,0xc
    80000eae:	f92ff0ef          	jal	80000640 <uvmunmap>
  uvmunmap(pagetable, TRAPFRAME, 1, 0);
    80000eb2:	4681                	li	a3,0
    80000eb4:	4605                	li	a2,1
    80000eb6:	020005b7          	lui	a1,0x2000
    80000eba:	15fd                	addi	a1,a1,-1 # 1ffffff <_entry-0x7e000001>
    80000ebc:	05b6                	slli	a1,a1,0xd
    80000ebe:	8526                	mv	a0,s1
    80000ec0:	f80ff0ef          	jal	80000640 <uvmunmap>
  uvmfree(pagetable, sz);
    80000ec4:	85ca                	mv	a1,s2
    80000ec6:	8526                	mv	a0,s1
    80000ec8:	a03ff0ef          	jal	800008ca <uvmfree>
}
    80000ecc:	60e2                	ld	ra,24(sp)
    80000ece:	6442                	ld	s0,16(sp)
    80000ed0:	64a2                	ld	s1,8(sp)
    80000ed2:	6902                	ld	s2,0(sp)
    80000ed4:	6105                	addi	sp,sp,32
    80000ed6:	8082                	ret

0000000080000ed8 <freeproc>:
{
    80000ed8:	1101                	addi	sp,sp,-32
    80000eda:	ec06                	sd	ra,24(sp)
    80000edc:	e822                	sd	s0,16(sp)
    80000ede:	e426                	sd	s1,8(sp)
    80000ee0:	1000                	addi	s0,sp,32
    80000ee2:	84aa                	mv	s1,a0
  if(p->trapframe)
    80000ee4:	6d28                	ld	a0,88(a0)
    80000ee6:	c119                	beqz	a0,80000eec <freeproc+0x14>
    kfree((void*)p->trapframe);
    80000ee8:	934ff0ef          	jal	8000001c <kfree>
  p->trapframe = 0;
    80000eec:	0404bc23          	sd	zero,88(s1)
  if(p->pagetable)
    80000ef0:	68a8                	ld	a0,80(s1)
    80000ef2:	c501                	beqz	a0,80000efa <freeproc+0x22>
    proc_freepagetable(p->pagetable, p->sz);
    80000ef4:	64ac                	ld	a1,72(s1)
    80000ef6:	f9dff0ef          	jal	80000e92 <proc_freepagetable>
  p->pagetable = 0;
    80000efa:	0404b823          	sd	zero,80(s1)
  p->sz = 0;
    80000efe:	0404b423          	sd	zero,72(s1)
  p->pid = 0;
    80000f02:	0204a823          	sw	zero,48(s1)
  p->parent = 0;
    80000f06:	0204bc23          	sd	zero,56(s1)
  p->name[0] = 0;
    80000f0a:	2c048c23          	sb	zero,728(s1)
  p->chan = 0;
    80000f0e:	0204b023          	sd	zero,32(s1)
  p->killed = 0;
    80000f12:	0204a423          	sw	zero,40(s1)
  p->xstate = 0;
    80000f16:	0204a623          	sw	zero,44(s1)
  p->state = UNUSED;
    80000f1a:	0004ac23          	sw	zero,24(s1)
}
    80000f1e:	60e2                	ld	ra,24(sp)
    80000f20:	6442                	ld	s0,16(sp)
    80000f22:	64a2                	ld	s1,8(sp)
    80000f24:	6105                	addi	sp,sp,32
    80000f26:	8082                	ret

0000000080000f28 <allocproc>:
{
    80000f28:	1101                	addi	sp,sp,-32
    80000f2a:	ec06                	sd	ra,24(sp)
    80000f2c:	e822                	sd	s0,16(sp)
    80000f2e:	e426                	sd	s1,8(sp)
    80000f30:	e04a                	sd	s2,0(sp)
    80000f32:	1000                	addi	s0,sp,32
  for(p = proc; p < &proc[NPROC]; p++) {
    80000f34:	00009497          	auipc	s1,0x9
    80000f38:	72c48493          	addi	s1,s1,1836 # 8000a660 <proc>
    80000f3c:	00015917          	auipc	s2,0x15
    80000f40:	12490913          	addi	s2,s2,292 # 80016060 <tickslock>
    acquire(&p->lock);
    80000f44:	8526                	mv	a0,s1
    80000f46:	7ea040ef          	jal	80005730 <acquire>
    if(p->state == UNUSED) {
    80000f4a:	4c9c                	lw	a5,24(s1)
    80000f4c:	cb91                	beqz	a5,80000f60 <allocproc+0x38>
      release(&p->lock);
    80000f4e:	8526                	mv	a0,s1
    80000f50:	079040ef          	jal	800057c8 <release>
  for(p = proc; p < &proc[NPROC]; p++) {
    80000f54:	2e848493          	addi	s1,s1,744
    80000f58:	ff2496e3          	bne	s1,s2,80000f44 <allocproc+0x1c>
  return 0;
    80000f5c:	4481                	li	s1,0
    80000f5e:	a089                	j	80000fa0 <allocproc+0x78>
  p->pid = allocpid();
    80000f60:	e71ff0ef          	jal	80000dd0 <allocpid>
    80000f64:	d888                	sw	a0,48(s1)
  p->state = USED;
    80000f66:	4785                	li	a5,1
    80000f68:	cc9c                	sw	a5,24(s1)
  if((p->trapframe = (struct trapframe *)kalloc()) == 0){
    80000f6a:	994ff0ef          	jal	800000fe <kalloc>
    80000f6e:	892a                	mv	s2,a0
    80000f70:	eca8                	sd	a0,88(s1)
    80000f72:	cd15                	beqz	a0,80000fae <allocproc+0x86>
  p->pagetable = proc_pagetable(p);
    80000f74:	8526                	mv	a0,s1
    80000f76:	e99ff0ef          	jal	80000e0e <proc_pagetable>
    80000f7a:	892a                	mv	s2,a0
    80000f7c:	e8a8                	sd	a0,80(s1)
  if(p->pagetable == 0){
    80000f7e:	c121                	beqz	a0,80000fbe <allocproc+0x96>
  memset(&p->context, 0, sizeof(p->context));
    80000f80:	07000613          	li	a2,112
    80000f84:	4581                	li	a1,0
    80000f86:	06048513          	addi	a0,s1,96
    80000f8a:	9c4ff0ef          	jal	8000014e <memset>
  p->context.ra = (uint64)forkret;
    80000f8e:	00000797          	auipc	a5,0x0
    80000f92:	e0878793          	addi	a5,a5,-504 # 80000d96 <forkret>
    80000f96:	f0bc                	sd	a5,96(s1)
  p->context.sp = p->kstack + PGSIZE;
    80000f98:	60bc                	ld	a5,64(s1)
    80000f9a:	6705                	lui	a4,0x1
    80000f9c:	97ba                	add	a5,a5,a4
    80000f9e:	f4bc                	sd	a5,104(s1)
}
    80000fa0:	8526                	mv	a0,s1
    80000fa2:	60e2                	ld	ra,24(sp)
    80000fa4:	6442                	ld	s0,16(sp)
    80000fa6:	64a2                	ld	s1,8(sp)
    80000fa8:	6902                	ld	s2,0(sp)
    80000faa:	6105                	addi	sp,sp,32
    80000fac:	8082                	ret
    freeproc(p);
    80000fae:	8526                	mv	a0,s1
    80000fb0:	f29ff0ef          	jal	80000ed8 <freeproc>
    release(&p->lock);
    80000fb4:	8526                	mv	a0,s1
    80000fb6:	013040ef          	jal	800057c8 <release>
    return 0;
    80000fba:	84ca                	mv	s1,s2
    80000fbc:	b7d5                	j	80000fa0 <allocproc+0x78>
    freeproc(p);
    80000fbe:	8526                	mv	a0,s1
    80000fc0:	f19ff0ef          	jal	80000ed8 <freeproc>
    release(&p->lock);
    80000fc4:	8526                	mv	a0,s1
    80000fc6:	003040ef          	jal	800057c8 <release>
    return 0;
    80000fca:	84ca                	mv	s1,s2
    80000fcc:	bfd1                	j	80000fa0 <allocproc+0x78>

0000000080000fce <userinit>:
{
    80000fce:	1101                	addi	sp,sp,-32
    80000fd0:	ec06                	sd	ra,24(sp)
    80000fd2:	e822                	sd	s0,16(sp)
    80000fd4:	e426                	sd	s1,8(sp)
    80000fd6:	1000                	addi	s0,sp,32
  p = allocproc();
    80000fd8:	f51ff0ef          	jal	80000f28 <allocproc>
    80000fdc:	84aa                	mv	s1,a0
  initproc = p;
    80000fde:	00009797          	auipc	a5,0x9
    80000fe2:	20a7b923          	sd	a0,530(a5) # 8000a1f0 <initproc>
  uvmfirst(p->pagetable, initcode, sizeof(initcode));
    80000fe6:	03400613          	li	a2,52
    80000fea:	00009597          	auipc	a1,0x9
    80000fee:	19658593          	addi	a1,a1,406 # 8000a180 <initcode>
    80000ff2:	6928                	ld	a0,80(a0)
    80000ff4:	f2eff0ef          	jal	80000722 <uvmfirst>
  p->sz = PGSIZE;
    80000ff8:	6785                	lui	a5,0x1
    80000ffa:	e4bc                	sd	a5,72(s1)
  p->trapframe->epc = 0;      // user program counter
    80000ffc:	6cb8                	ld	a4,88(s1)
    80000ffe:	00073c23          	sd	zero,24(a4) # 1018 <_entry-0x7fffefe8>
  p->trapframe->sp = PGSIZE;  // user stack pointer
    80001002:	6cb8                	ld	a4,88(s1)
    80001004:	fb1c                	sd	a5,48(a4)
  safestrcpy(p->name, "initcode", sizeof(p->name));
    80001006:	4641                	li	a2,16
    80001008:	00006597          	auipc	a1,0x6
    8000100c:	1b858593          	addi	a1,a1,440 # 800071c0 <etext+0x1c0>
    80001010:	2d848513          	addi	a0,s1,728
    80001014:	a78ff0ef          	jal	8000028c <safestrcpy>
  p->cwd = namei("/");
    80001018:	00006517          	auipc	a0,0x6
    8000101c:	1b850513          	addi	a0,a0,440 # 800071d0 <etext+0x1d0>
    80001020:	501010ef          	jal	80002d20 <namei>
    80001024:	2ca4b823          	sd	a0,720(s1)
  p->state = RUNNABLE;
    80001028:	478d                	li	a5,3
    8000102a:	cc9c                	sw	a5,24(s1)
  release(&p->lock);
    8000102c:	8526                	mv	a0,s1
    8000102e:	79a040ef          	jal	800057c8 <release>
}
    80001032:	60e2                	ld	ra,24(sp)
    80001034:	6442                	ld	s0,16(sp)
    80001036:	64a2                	ld	s1,8(sp)
    80001038:	6105                	addi	sp,sp,32
    8000103a:	8082                	ret

000000008000103c <growproc>:
{
    8000103c:	1101                	addi	sp,sp,-32
    8000103e:	ec06                	sd	ra,24(sp)
    80001040:	e822                	sd	s0,16(sp)
    80001042:	e426                	sd	s1,8(sp)
    80001044:	e04a                	sd	s2,0(sp)
    80001046:	1000                	addi	s0,sp,32
    80001048:	892a                	mv	s2,a0
  struct proc *p = myproc();
    8000104a:	d1dff0ef          	jal	80000d66 <myproc>
    8000104e:	84aa                	mv	s1,a0
  sz = p->sz;
    80001050:	652c                	ld	a1,72(a0)
  if(n > 0){
    80001052:	01204c63          	bgtz	s2,8000106a <growproc+0x2e>
  } else if(n < 0){
    80001056:	02094463          	bltz	s2,8000107e <growproc+0x42>
  p->sz = sz;
    8000105a:	e4ac                	sd	a1,72(s1)
  return 0;
    8000105c:	4501                	li	a0,0
}
    8000105e:	60e2                	ld	ra,24(sp)
    80001060:	6442                	ld	s0,16(sp)
    80001062:	64a2                	ld	s1,8(sp)
    80001064:	6902                	ld	s2,0(sp)
    80001066:	6105                	addi	sp,sp,32
    80001068:	8082                	ret
    if((sz = uvmalloc(p->pagetable, sz, sz + n, PTE_W)) == 0) {
    8000106a:	4691                	li	a3,4
    8000106c:	00b90633          	add	a2,s2,a1
    80001070:	6928                	ld	a0,80(a0)
    80001072:	f52ff0ef          	jal	800007c4 <uvmalloc>
    80001076:	85aa                	mv	a1,a0
    80001078:	f16d                	bnez	a0,8000105a <growproc+0x1e>
      return -1;
    8000107a:	557d                	li	a0,-1
    8000107c:	b7cd                	j	8000105e <growproc+0x22>
    sz = uvmdealloc(p->pagetable, sz, sz + n);
    8000107e:	00b90633          	add	a2,s2,a1
    80001082:	6928                	ld	a0,80(a0)
    80001084:	efcff0ef          	jal	80000780 <uvmdealloc>
    80001088:	85aa                	mv	a1,a0
    8000108a:	bfc1                	j	8000105a <growproc+0x1e>

000000008000108c <fork>:
{
    8000108c:	7139                	addi	sp,sp,-64
    8000108e:	fc06                	sd	ra,56(sp)
    80001090:	f822                	sd	s0,48(sp)
    80001092:	f04a                	sd	s2,32(sp)
    80001094:	e456                	sd	s5,8(sp)
    80001096:	0080                	addi	s0,sp,64
  struct proc *p = myproc();
    80001098:	ccfff0ef          	jal	80000d66 <myproc>
    8000109c:	8aaa                	mv	s5,a0
  if((np = allocproc()) == 0){
    8000109e:	e8bff0ef          	jal	80000f28 <allocproc>
    800010a2:	0e050a63          	beqz	a0,80001196 <fork+0x10a>
    800010a6:	e852                	sd	s4,16(sp)
    800010a8:	8a2a                	mv	s4,a0
  if(uvmcopy(p->pagetable, np->pagetable, p->sz) < 0){
    800010aa:	048ab603          	ld	a2,72(s5)
    800010ae:	692c                	ld	a1,80(a0)
    800010b0:	050ab503          	ld	a0,80(s5)
    800010b4:	849ff0ef          	jal	800008fc <uvmcopy>
    800010b8:	04054a63          	bltz	a0,8000110c <fork+0x80>
    800010bc:	f426                	sd	s1,40(sp)
    800010be:	ec4e                	sd	s3,24(sp)
  np->sz = p->sz;
    800010c0:	048ab783          	ld	a5,72(s5)
    800010c4:	04fa3423          	sd	a5,72(s4)
  *(np->trapframe) = *(p->trapframe);
    800010c8:	058ab683          	ld	a3,88(s5)
    800010cc:	87b6                	mv	a5,a3
    800010ce:	058a3703          	ld	a4,88(s4)
    800010d2:	12068693          	addi	a3,a3,288
    800010d6:	0007b803          	ld	a6,0(a5) # 1000 <_entry-0x7ffff000>
    800010da:	6788                	ld	a0,8(a5)
    800010dc:	6b8c                	ld	a1,16(a5)
    800010de:	6f90                	ld	a2,24(a5)
    800010e0:	01073023          	sd	a6,0(a4)
    800010e4:	e708                	sd	a0,8(a4)
    800010e6:	eb0c                	sd	a1,16(a4)
    800010e8:	ef10                	sd	a2,24(a4)
    800010ea:	02078793          	addi	a5,a5,32
    800010ee:	02070713          	addi	a4,a4,32
    800010f2:	fed792e3          	bne	a5,a3,800010d6 <fork+0x4a>
  np->trapframe->a0 = 0;
    800010f6:	058a3783          	ld	a5,88(s4)
    800010fa:	0607b823          	sd	zero,112(a5)
  for(i = 0; i < NOFILE; i++)
    800010fe:	0d0a8493          	addi	s1,s5,208
    80001102:	0d0a0913          	addi	s2,s4,208
    80001106:	2d0a8993          	addi	s3,s5,720
    8000110a:	a015                	j	8000112e <fork+0xa2>
    freeproc(np);
    8000110c:	8552                	mv	a0,s4
    8000110e:	dcbff0ef          	jal	80000ed8 <freeproc>
    release(&np->lock);
    80001112:	8552                	mv	a0,s4
    80001114:	6b4040ef          	jal	800057c8 <release>
    return -1;
    80001118:	597d                	li	s2,-1
    8000111a:	6a42                	ld	s4,16(sp)
    8000111c:	a0b5                	j	80001188 <fork+0xfc>
      np->ofile[i] = filedup(p->ofile[i]);
    8000111e:	196020ef          	jal	800032b4 <filedup>
    80001122:	00a93023          	sd	a0,0(s2)
  for(i = 0; i < NOFILE; i++)
    80001126:	04a1                	addi	s1,s1,8
    80001128:	0921                	addi	s2,s2,8
    8000112a:	01348563          	beq	s1,s3,80001134 <fork+0xa8>
    if(p->ofile[i])
    8000112e:	6088                	ld	a0,0(s1)
    80001130:	f57d                	bnez	a0,8000111e <fork+0x92>
    80001132:	bfd5                	j	80001126 <fork+0x9a>
  np->cwd = idup(p->cwd);
    80001134:	2d0ab503          	ld	a0,720(s5)
    80001138:	4d8010ef          	jal	80002610 <idup>
    8000113c:	2caa3823          	sd	a0,720(s4)
  safestrcpy(np->name, p->name, sizeof(p->name));
    80001140:	4641                	li	a2,16
    80001142:	2d8a8593          	addi	a1,s5,728
    80001146:	2d8a0513          	addi	a0,s4,728
    8000114a:	942ff0ef          	jal	8000028c <safestrcpy>
  pid = np->pid;
    8000114e:	030a2903          	lw	s2,48(s4)
  release(&np->lock);
    80001152:	8552                	mv	a0,s4
    80001154:	674040ef          	jal	800057c8 <release>
  acquire(&wait_lock);
    80001158:	00009497          	auipc	s1,0x9
    8000115c:	0f048493          	addi	s1,s1,240 # 8000a248 <wait_lock>
    80001160:	8526                	mv	a0,s1
    80001162:	5ce040ef          	jal	80005730 <acquire>
  np->parent = p;
    80001166:	035a3c23          	sd	s5,56(s4)
  release(&wait_lock);
    8000116a:	8526                	mv	a0,s1
    8000116c:	65c040ef          	jal	800057c8 <release>
  acquire(&np->lock);
    80001170:	8552                	mv	a0,s4
    80001172:	5be040ef          	jal	80005730 <acquire>
  np->state = RUNNABLE;
    80001176:	478d                	li	a5,3
    80001178:	00fa2c23          	sw	a5,24(s4)
  release(&np->lock);
    8000117c:	8552                	mv	a0,s4
    8000117e:	64a040ef          	jal	800057c8 <release>
  return pid;
    80001182:	74a2                	ld	s1,40(sp)
    80001184:	69e2                	ld	s3,24(sp)
    80001186:	6a42                	ld	s4,16(sp)
}
    80001188:	854a                	mv	a0,s2
    8000118a:	70e2                	ld	ra,56(sp)
    8000118c:	7442                	ld	s0,48(sp)
    8000118e:	7902                	ld	s2,32(sp)
    80001190:	6aa2                	ld	s5,8(sp)
    80001192:	6121                	addi	sp,sp,64
    80001194:	8082                	ret
    return -1;
    80001196:	597d                	li	s2,-1
    80001198:	bfc5                	j	80001188 <fork+0xfc>

000000008000119a <scheduler>:
{
    8000119a:	715d                	addi	sp,sp,-80
    8000119c:	e486                	sd	ra,72(sp)
    8000119e:	e0a2                	sd	s0,64(sp)
    800011a0:	fc26                	sd	s1,56(sp)
    800011a2:	f84a                	sd	s2,48(sp)
    800011a4:	f44e                	sd	s3,40(sp)
    800011a6:	f052                	sd	s4,32(sp)
    800011a8:	ec56                	sd	s5,24(sp)
    800011aa:	e85a                	sd	s6,16(sp)
    800011ac:	e45e                	sd	s7,8(sp)
    800011ae:	e062                	sd	s8,0(sp)
    800011b0:	0880                	addi	s0,sp,80
    800011b2:	8792                	mv	a5,tp
  int id = r_tp();
    800011b4:	2781                	sext.w	a5,a5
  c->proc = 0;
    800011b6:	00779b13          	slli	s6,a5,0x7
    800011ba:	00009717          	auipc	a4,0x9
    800011be:	07670713          	addi	a4,a4,118 # 8000a230 <pid_lock>
    800011c2:	975a                	add	a4,a4,s6
    800011c4:	02073823          	sd	zero,48(a4)
        swtch(&c->context, &p->context);
    800011c8:	00009717          	auipc	a4,0x9
    800011cc:	0a070713          	addi	a4,a4,160 # 8000a268 <cpus+0x8>
    800011d0:	9b3a                	add	s6,s6,a4
        p->state = RUNNING;
    800011d2:	4c11                	li	s8,4
        c->proc = p;
    800011d4:	079e                	slli	a5,a5,0x7
    800011d6:	00009a17          	auipc	s4,0x9
    800011da:	05aa0a13          	addi	s4,s4,90 # 8000a230 <pid_lock>
    800011de:	9a3e                	add	s4,s4,a5
        found = 1;
    800011e0:	4b85                	li	s7,1
    for(p = proc; p < &proc[NPROC]; p++) {
    800011e2:	00015997          	auipc	s3,0x15
    800011e6:	e7e98993          	addi	s3,s3,-386 # 80016060 <tickslock>
    800011ea:	a0a9                	j	80001234 <scheduler+0x9a>
      release(&p->lock);
    800011ec:	8526                	mv	a0,s1
    800011ee:	5da040ef          	jal	800057c8 <release>
    for(p = proc; p < &proc[NPROC]; p++) {
    800011f2:	2e848493          	addi	s1,s1,744
    800011f6:	03348563          	beq	s1,s3,80001220 <scheduler+0x86>
      acquire(&p->lock);
    800011fa:	8526                	mv	a0,s1
    800011fc:	534040ef          	jal	80005730 <acquire>
      if(p->state == RUNNABLE) {
    80001200:	4c9c                	lw	a5,24(s1)
    80001202:	ff2795e3          	bne	a5,s2,800011ec <scheduler+0x52>
        p->state = RUNNING;
    80001206:	0184ac23          	sw	s8,24(s1)
        c->proc = p;
    8000120a:	029a3823          	sd	s1,48(s4)
        swtch(&c->context, &p->context);
    8000120e:	06048593          	addi	a1,s1,96
    80001212:	855a                	mv	a0,s6
    80001214:	5b4000ef          	jal	800017c8 <swtch>
        c->proc = 0;
    80001218:	020a3823          	sd	zero,48(s4)
        found = 1;
    8000121c:	8ade                	mv	s5,s7
    8000121e:	b7f9                	j	800011ec <scheduler+0x52>
    if(found == 0) {
    80001220:	000a9a63          	bnez	s5,80001234 <scheduler+0x9a>
  asm volatile("csrr %0, sstatus" : "=r" (x) );
    80001224:	100027f3          	csrr	a5,sstatus
  w_sstatus(r_sstatus() | SSTATUS_SIE);
    80001228:	0027e793          	ori	a5,a5,2
  asm volatile("csrw sstatus, %0" : : "r" (x));
    8000122c:	10079073          	csrw	sstatus,a5
      asm volatile("wfi");
    80001230:	10500073          	wfi
  asm volatile("csrr %0, sstatus" : "=r" (x) );
    80001234:	100027f3          	csrr	a5,sstatus
  w_sstatus(r_sstatus() | SSTATUS_SIE);
    80001238:	0027e793          	ori	a5,a5,2
  asm volatile("csrw sstatus, %0" : : "r" (x));
    8000123c:	10079073          	csrw	sstatus,a5
    int found = 0;
    80001240:	4a81                	li	s5,0
    for(p = proc; p < &proc[NPROC]; p++) {
    80001242:	00009497          	auipc	s1,0x9
    80001246:	41e48493          	addi	s1,s1,1054 # 8000a660 <proc>
      if(p->state == RUNNABLE) {
    8000124a:	490d                	li	s2,3
    8000124c:	b77d                	j	800011fa <scheduler+0x60>

000000008000124e <sched>:
{
    8000124e:	7179                	addi	sp,sp,-48
    80001250:	f406                	sd	ra,40(sp)
    80001252:	f022                	sd	s0,32(sp)
    80001254:	ec26                	sd	s1,24(sp)
    80001256:	e84a                	sd	s2,16(sp)
    80001258:	e44e                	sd	s3,8(sp)
    8000125a:	1800                	addi	s0,sp,48
  struct proc *p = myproc();
    8000125c:	b0bff0ef          	jal	80000d66 <myproc>
    80001260:	84aa                	mv	s1,a0
  if(!holding(&p->lock))
    80001262:	464040ef          	jal	800056c6 <holding>
    80001266:	c92d                	beqz	a0,800012d8 <sched+0x8a>
  asm volatile("mv %0, tp" : "=r" (x) );
    80001268:	8792                	mv	a5,tp
  if(mycpu()->noff != 1)
    8000126a:	2781                	sext.w	a5,a5
    8000126c:	079e                	slli	a5,a5,0x7
    8000126e:	00009717          	auipc	a4,0x9
    80001272:	fc270713          	addi	a4,a4,-62 # 8000a230 <pid_lock>
    80001276:	97ba                	add	a5,a5,a4
    80001278:	0a87a703          	lw	a4,168(a5)
    8000127c:	4785                	li	a5,1
    8000127e:	06f71363          	bne	a4,a5,800012e4 <sched+0x96>
  if(p->state == RUNNING)
    80001282:	4c98                	lw	a4,24(s1)
    80001284:	4791                	li	a5,4
    80001286:	06f70563          	beq	a4,a5,800012f0 <sched+0xa2>
  asm volatile("csrr %0, sstatus" : "=r" (x) );
    8000128a:	100027f3          	csrr	a5,sstatus
  return (x & SSTATUS_SIE) != 0;
    8000128e:	8b89                	andi	a5,a5,2
  if(intr_get())
    80001290:	e7b5                	bnez	a5,800012fc <sched+0xae>
  asm volatile("mv %0, tp" : "=r" (x) );
    80001292:	8792                	mv	a5,tp
  intena = mycpu()->intena;
    80001294:	00009917          	auipc	s2,0x9
    80001298:	f9c90913          	addi	s2,s2,-100 # 8000a230 <pid_lock>
    8000129c:	2781                	sext.w	a5,a5
    8000129e:	079e                	slli	a5,a5,0x7
    800012a0:	97ca                	add	a5,a5,s2
    800012a2:	0ac7a983          	lw	s3,172(a5)
    800012a6:	8792                	mv	a5,tp
  swtch(&p->context, &mycpu()->context);
    800012a8:	2781                	sext.w	a5,a5
    800012aa:	079e                	slli	a5,a5,0x7
    800012ac:	00009597          	auipc	a1,0x9
    800012b0:	fbc58593          	addi	a1,a1,-68 # 8000a268 <cpus+0x8>
    800012b4:	95be                	add	a1,a1,a5
    800012b6:	06048513          	addi	a0,s1,96
    800012ba:	50e000ef          	jal	800017c8 <swtch>
    800012be:	8792                	mv	a5,tp
  mycpu()->intena = intena;
    800012c0:	2781                	sext.w	a5,a5
    800012c2:	079e                	slli	a5,a5,0x7
    800012c4:	993e                	add	s2,s2,a5
    800012c6:	0b392623          	sw	s3,172(s2)
}
    800012ca:	70a2                	ld	ra,40(sp)
    800012cc:	7402                	ld	s0,32(sp)
    800012ce:	64e2                	ld	s1,24(sp)
    800012d0:	6942                	ld	s2,16(sp)
    800012d2:	69a2                	ld	s3,8(sp)
    800012d4:	6145                	addi	sp,sp,48
    800012d6:	8082                	ret
    panic("sched p->lock");
    800012d8:	00006517          	auipc	a0,0x6
    800012dc:	f0050513          	addi	a0,a0,-256 # 800071d8 <etext+0x1d8>
    800012e0:	122040ef          	jal	80005402 <panic>
    panic("sched locks");
    800012e4:	00006517          	auipc	a0,0x6
    800012e8:	f0450513          	addi	a0,a0,-252 # 800071e8 <etext+0x1e8>
    800012ec:	116040ef          	jal	80005402 <panic>
    panic("sched running");
    800012f0:	00006517          	auipc	a0,0x6
    800012f4:	f0850513          	addi	a0,a0,-248 # 800071f8 <etext+0x1f8>
    800012f8:	10a040ef          	jal	80005402 <panic>
    panic("sched interruptible");
    800012fc:	00006517          	auipc	a0,0x6
    80001300:	f0c50513          	addi	a0,a0,-244 # 80007208 <etext+0x208>
    80001304:	0fe040ef          	jal	80005402 <panic>

0000000080001308 <yield>:
{
    80001308:	1101                	addi	sp,sp,-32
    8000130a:	ec06                	sd	ra,24(sp)
    8000130c:	e822                	sd	s0,16(sp)
    8000130e:	e426                	sd	s1,8(sp)
    80001310:	1000                	addi	s0,sp,32
  struct proc *p = myproc();
    80001312:	a55ff0ef          	jal	80000d66 <myproc>
    80001316:	84aa                	mv	s1,a0
  acquire(&p->lock);
    80001318:	418040ef          	jal	80005730 <acquire>
  p->state = RUNNABLE;
    8000131c:	478d                	li	a5,3
    8000131e:	cc9c                	sw	a5,24(s1)
  sched();
    80001320:	f2fff0ef          	jal	8000124e <sched>
  release(&p->lock);
    80001324:	8526                	mv	a0,s1
    80001326:	4a2040ef          	jal	800057c8 <release>
}
    8000132a:	60e2                	ld	ra,24(sp)
    8000132c:	6442                	ld	s0,16(sp)
    8000132e:	64a2                	ld	s1,8(sp)
    80001330:	6105                	addi	sp,sp,32
    80001332:	8082                	ret

0000000080001334 <sleep>:

// Atomically release lock and sleep on chan.
// Reacquires lock when awakened.
void
sleep(void *chan, struct spinlock *lk)
{
    80001334:	7179                	addi	sp,sp,-48
    80001336:	f406                	sd	ra,40(sp)
    80001338:	f022                	sd	s0,32(sp)
    8000133a:	ec26                	sd	s1,24(sp)
    8000133c:	e84a                	sd	s2,16(sp)
    8000133e:	e44e                	sd	s3,8(sp)
    80001340:	1800                	addi	s0,sp,48
    80001342:	89aa                	mv	s3,a0
    80001344:	892e                	mv	s2,a1
  struct proc *p = myproc();
    80001346:	a21ff0ef          	jal	80000d66 <myproc>
    8000134a:	84aa                	mv	s1,a0
  // Once we hold p->lock, we can be
  // guaranteed that we won't miss any wakeup
  // (wakeup locks p->lock),
  // so it's okay to release lk.

  acquire(&p->lock);  //DOC: sleeplock1
    8000134c:	3e4040ef          	jal	80005730 <acquire>
  release(lk);
    80001350:	854a                	mv	a0,s2
    80001352:	476040ef          	jal	800057c8 <release>

  // Go to sleep.
  p->chan = chan;
    80001356:	0334b023          	sd	s3,32(s1)
  p->state = SLEEPING;
    8000135a:	4789                	li	a5,2
    8000135c:	cc9c                	sw	a5,24(s1)

  sched();
    8000135e:	ef1ff0ef          	jal	8000124e <sched>

  // Tidy up.
  p->chan = 0;
    80001362:	0204b023          	sd	zero,32(s1)

  // Reacquire original lock.
  release(&p->lock);
    80001366:	8526                	mv	a0,s1
    80001368:	460040ef          	jal	800057c8 <release>
  acquire(lk);
    8000136c:	854a                	mv	a0,s2
    8000136e:	3c2040ef          	jal	80005730 <acquire>
}
    80001372:	70a2                	ld	ra,40(sp)
    80001374:	7402                	ld	s0,32(sp)
    80001376:	64e2                	ld	s1,24(sp)
    80001378:	6942                	ld	s2,16(sp)
    8000137a:	69a2                	ld	s3,8(sp)
    8000137c:	6145                	addi	sp,sp,48
    8000137e:	8082                	ret

0000000080001380 <wakeup>:

// Wake up all processes sleeping on chan.
// Must be called without any p->lock.
void
wakeup(void *chan)
{
    80001380:	7139                	addi	sp,sp,-64
    80001382:	fc06                	sd	ra,56(sp)
    80001384:	f822                	sd	s0,48(sp)
    80001386:	f426                	sd	s1,40(sp)
    80001388:	f04a                	sd	s2,32(sp)
    8000138a:	ec4e                	sd	s3,24(sp)
    8000138c:	e852                	sd	s4,16(sp)
    8000138e:	e456                	sd	s5,8(sp)
    80001390:	0080                	addi	s0,sp,64
    80001392:	8a2a                	mv	s4,a0
  struct proc *p;

  for(p = proc; p < &proc[NPROC]; p++) {
    80001394:	00009497          	auipc	s1,0x9
    80001398:	2cc48493          	addi	s1,s1,716 # 8000a660 <proc>
    if(p != myproc()){
      acquire(&p->lock);
      if(p->state == SLEEPING && p->chan == chan) {
    8000139c:	4989                	li	s3,2
        p->state = RUNNABLE;
    8000139e:	4a8d                	li	s5,3
  for(p = proc; p < &proc[NPROC]; p++) {
    800013a0:	00015917          	auipc	s2,0x15
    800013a4:	cc090913          	addi	s2,s2,-832 # 80016060 <tickslock>
    800013a8:	a801                	j	800013b8 <wakeup+0x38>
      }
      release(&p->lock);
    800013aa:	8526                	mv	a0,s1
    800013ac:	41c040ef          	jal	800057c8 <release>
  for(p = proc; p < &proc[NPROC]; p++) {
    800013b0:	2e848493          	addi	s1,s1,744
    800013b4:	03248263          	beq	s1,s2,800013d8 <wakeup+0x58>
    if(p != myproc()){
    800013b8:	9afff0ef          	jal	80000d66 <myproc>
    800013bc:	fea48ae3          	beq	s1,a0,800013b0 <wakeup+0x30>
      acquire(&p->lock);
    800013c0:	8526                	mv	a0,s1
    800013c2:	36e040ef          	jal	80005730 <acquire>
      if(p->state == SLEEPING && p->chan == chan) {
    800013c6:	4c9c                	lw	a5,24(s1)
    800013c8:	ff3791e3          	bne	a5,s3,800013aa <wakeup+0x2a>
    800013cc:	709c                	ld	a5,32(s1)
    800013ce:	fd479ee3          	bne	a5,s4,800013aa <wakeup+0x2a>
        p->state = RUNNABLE;
    800013d2:	0154ac23          	sw	s5,24(s1)
    800013d6:	bfd1                	j	800013aa <wakeup+0x2a>
    }
  }
}
    800013d8:	70e2                	ld	ra,56(sp)
    800013da:	7442                	ld	s0,48(sp)
    800013dc:	74a2                	ld	s1,40(sp)
    800013de:	7902                	ld	s2,32(sp)
    800013e0:	69e2                	ld	s3,24(sp)
    800013e2:	6a42                	ld	s4,16(sp)
    800013e4:	6aa2                	ld	s5,8(sp)
    800013e6:	6121                	addi	sp,sp,64
    800013e8:	8082                	ret

00000000800013ea <reparent>:
{
    800013ea:	7179                	addi	sp,sp,-48
    800013ec:	f406                	sd	ra,40(sp)
    800013ee:	f022                	sd	s0,32(sp)
    800013f0:	ec26                	sd	s1,24(sp)
    800013f2:	e84a                	sd	s2,16(sp)
    800013f4:	e44e                	sd	s3,8(sp)
    800013f6:	e052                	sd	s4,0(sp)
    800013f8:	1800                	addi	s0,sp,48
    800013fa:	892a                	mv	s2,a0
  for(pp = proc; pp < &proc[NPROC]; pp++){
    800013fc:	00009497          	auipc	s1,0x9
    80001400:	26448493          	addi	s1,s1,612 # 8000a660 <proc>
      pp->parent = initproc;
    80001404:	00009a17          	auipc	s4,0x9
    80001408:	deca0a13          	addi	s4,s4,-532 # 8000a1f0 <initproc>
  for(pp = proc; pp < &proc[NPROC]; pp++){
    8000140c:	00015997          	auipc	s3,0x15
    80001410:	c5498993          	addi	s3,s3,-940 # 80016060 <tickslock>
    80001414:	a029                	j	8000141e <reparent+0x34>
    80001416:	2e848493          	addi	s1,s1,744
    8000141a:	01348b63          	beq	s1,s3,80001430 <reparent+0x46>
    if(pp->parent == p){
    8000141e:	7c9c                	ld	a5,56(s1)
    80001420:	ff279be3          	bne	a5,s2,80001416 <reparent+0x2c>
      pp->parent = initproc;
    80001424:	000a3503          	ld	a0,0(s4)
    80001428:	fc88                	sd	a0,56(s1)
      wakeup(initproc);
    8000142a:	f57ff0ef          	jal	80001380 <wakeup>
    8000142e:	b7e5                	j	80001416 <reparent+0x2c>
}
    80001430:	70a2                	ld	ra,40(sp)
    80001432:	7402                	ld	s0,32(sp)
    80001434:	64e2                	ld	s1,24(sp)
    80001436:	6942                	ld	s2,16(sp)
    80001438:	69a2                	ld	s3,8(sp)
    8000143a:	6a02                	ld	s4,0(sp)
    8000143c:	6145                	addi	sp,sp,48
    8000143e:	8082                	ret

0000000080001440 <exit>:
{
    80001440:	7179                	addi	sp,sp,-48
    80001442:	f406                	sd	ra,40(sp)
    80001444:	f022                	sd	s0,32(sp)
    80001446:	ec26                	sd	s1,24(sp)
    80001448:	e84a                	sd	s2,16(sp)
    8000144a:	e44e                	sd	s3,8(sp)
    8000144c:	e052                	sd	s4,0(sp)
    8000144e:	1800                	addi	s0,sp,48
    80001450:	8a2a                	mv	s4,a0
  struct proc *p = myproc();
    80001452:	915ff0ef          	jal	80000d66 <myproc>
    80001456:	89aa                	mv	s3,a0
  if(p == initproc)
    80001458:	00009797          	auipc	a5,0x9
    8000145c:	d987b783          	ld	a5,-616(a5) # 8000a1f0 <initproc>
    80001460:	0d050493          	addi	s1,a0,208
    80001464:	2d050913          	addi	s2,a0,720
    80001468:	00a79f63          	bne	a5,a0,80001486 <exit+0x46>
    panic("init exiting");
    8000146c:	00006517          	auipc	a0,0x6
    80001470:	db450513          	addi	a0,a0,-588 # 80007220 <etext+0x220>
    80001474:	78f030ef          	jal	80005402 <panic>
      fileclose(f);
    80001478:	683010ef          	jal	800032fa <fileclose>
      p->ofile[fd] = 0;
    8000147c:	0004b023          	sd	zero,0(s1)
  for(int fd = 0; fd < NOFILE; fd++){
    80001480:	04a1                	addi	s1,s1,8
    80001482:	01248563          	beq	s1,s2,8000148c <exit+0x4c>
    if(p->ofile[fd]){
    80001486:	6088                	ld	a0,0(s1)
    80001488:	f965                	bnez	a0,80001478 <exit+0x38>
    8000148a:	bfdd                	j	80001480 <exit+0x40>
  begin_op();
    8000148c:	251010ef          	jal	80002edc <begin_op>
  iput(p->cwd);
    80001490:	2d09b503          	ld	a0,720(s3)
    80001494:	334010ef          	jal	800027c8 <iput>
  end_op();
    80001498:	2b1010ef          	jal	80002f48 <end_op>
  p->cwd = 0;
    8000149c:	2c09b823          	sd	zero,720(s3)
  acquire(&wait_lock);
    800014a0:	00009497          	auipc	s1,0x9
    800014a4:	da848493          	addi	s1,s1,-600 # 8000a248 <wait_lock>
    800014a8:	8526                	mv	a0,s1
    800014aa:	286040ef          	jal	80005730 <acquire>
  reparent(p);
    800014ae:	854e                	mv	a0,s3
    800014b0:	f3bff0ef          	jal	800013ea <reparent>
  wakeup(p->parent);
    800014b4:	0389b503          	ld	a0,56(s3)
    800014b8:	ec9ff0ef          	jal	80001380 <wakeup>
  acquire(&p->lock);
    800014bc:	854e                	mv	a0,s3
    800014be:	272040ef          	jal	80005730 <acquire>
  p->xstate = status;
    800014c2:	0349a623          	sw	s4,44(s3)
  p->state = ZOMBIE;
    800014c6:	4795                	li	a5,5
    800014c8:	00f9ac23          	sw	a5,24(s3)
  release(&wait_lock);
    800014cc:	8526                	mv	a0,s1
    800014ce:	2fa040ef          	jal	800057c8 <release>
  sched();
    800014d2:	d7dff0ef          	jal	8000124e <sched>
  panic("zombie exit");
    800014d6:	00006517          	auipc	a0,0x6
    800014da:	d5a50513          	addi	a0,a0,-678 # 80007230 <etext+0x230>
    800014de:	725030ef          	jal	80005402 <panic>

00000000800014e2 <kill>:
// Kill the process with the given pid.
// The victim won't exit until it tries to return
// to user space (see usertrap() in trap.c).
int
kill(int pid)
{
    800014e2:	7179                	addi	sp,sp,-48
    800014e4:	f406                	sd	ra,40(sp)
    800014e6:	f022                	sd	s0,32(sp)
    800014e8:	ec26                	sd	s1,24(sp)
    800014ea:	e84a                	sd	s2,16(sp)
    800014ec:	e44e                	sd	s3,8(sp)
    800014ee:	1800                	addi	s0,sp,48
    800014f0:	892a                	mv	s2,a0
  struct proc *p;

  for(p = proc; p < &proc[NPROC]; p++){
    800014f2:	00009497          	auipc	s1,0x9
    800014f6:	16e48493          	addi	s1,s1,366 # 8000a660 <proc>
    800014fa:	00015997          	auipc	s3,0x15
    800014fe:	b6698993          	addi	s3,s3,-1178 # 80016060 <tickslock>
    acquire(&p->lock);
    80001502:	8526                	mv	a0,s1
    80001504:	22c040ef          	jal	80005730 <acquire>
    if(p->pid == pid){
    80001508:	589c                	lw	a5,48(s1)
    8000150a:	01278b63          	beq	a5,s2,80001520 <kill+0x3e>
        p->state = RUNNABLE;
      }
      release(&p->lock);
      return 0;
    }
    release(&p->lock);
    8000150e:	8526                	mv	a0,s1
    80001510:	2b8040ef          	jal	800057c8 <release>
  for(p = proc; p < &proc[NPROC]; p++){
    80001514:	2e848493          	addi	s1,s1,744
    80001518:	ff3495e3          	bne	s1,s3,80001502 <kill+0x20>
  }
  return -1;
    8000151c:	557d                	li	a0,-1
    8000151e:	a819                	j	80001534 <kill+0x52>
      p->killed = 1;
    80001520:	4785                	li	a5,1
    80001522:	d49c                	sw	a5,40(s1)
      if(p->state == SLEEPING){
    80001524:	4c98                	lw	a4,24(s1)
    80001526:	4789                	li	a5,2
    80001528:	00f70d63          	beq	a4,a5,80001542 <kill+0x60>
      release(&p->lock);
    8000152c:	8526                	mv	a0,s1
    8000152e:	29a040ef          	jal	800057c8 <release>
      return 0;
    80001532:	4501                	li	a0,0
}
    80001534:	70a2                	ld	ra,40(sp)
    80001536:	7402                	ld	s0,32(sp)
    80001538:	64e2                	ld	s1,24(sp)
    8000153a:	6942                	ld	s2,16(sp)
    8000153c:	69a2                	ld	s3,8(sp)
    8000153e:	6145                	addi	sp,sp,48
    80001540:	8082                	ret
        p->state = RUNNABLE;
    80001542:	478d                	li	a5,3
    80001544:	cc9c                	sw	a5,24(s1)
    80001546:	b7dd                	j	8000152c <kill+0x4a>

0000000080001548 <setkilled>:

void
setkilled(struct proc *p)
{
    80001548:	1101                	addi	sp,sp,-32
    8000154a:	ec06                	sd	ra,24(sp)
    8000154c:	e822                	sd	s0,16(sp)
    8000154e:	e426                	sd	s1,8(sp)
    80001550:	1000                	addi	s0,sp,32
    80001552:	84aa                	mv	s1,a0
  acquire(&p->lock);
    80001554:	1dc040ef          	jal	80005730 <acquire>
  p->killed = 1;
    80001558:	4785                	li	a5,1
    8000155a:	d49c                	sw	a5,40(s1)
  release(&p->lock);
    8000155c:	8526                	mv	a0,s1
    8000155e:	26a040ef          	jal	800057c8 <release>
}
    80001562:	60e2                	ld	ra,24(sp)
    80001564:	6442                	ld	s0,16(sp)
    80001566:	64a2                	ld	s1,8(sp)
    80001568:	6105                	addi	sp,sp,32
    8000156a:	8082                	ret

000000008000156c <killed>:

int
killed(struct proc *p)
{
    8000156c:	1101                	addi	sp,sp,-32
    8000156e:	ec06                	sd	ra,24(sp)
    80001570:	e822                	sd	s0,16(sp)
    80001572:	e426                	sd	s1,8(sp)
    80001574:	e04a                	sd	s2,0(sp)
    80001576:	1000                	addi	s0,sp,32
    80001578:	84aa                	mv	s1,a0
  int k;
  
  acquire(&p->lock);
    8000157a:	1b6040ef          	jal	80005730 <acquire>
  k = p->killed;
    8000157e:	0284a903          	lw	s2,40(s1)
  release(&p->lock);
    80001582:	8526                	mv	a0,s1
    80001584:	244040ef          	jal	800057c8 <release>
  return k;
}
    80001588:	854a                	mv	a0,s2
    8000158a:	60e2                	ld	ra,24(sp)
    8000158c:	6442                	ld	s0,16(sp)
    8000158e:	64a2                	ld	s1,8(sp)
    80001590:	6902                	ld	s2,0(sp)
    80001592:	6105                	addi	sp,sp,32
    80001594:	8082                	ret

0000000080001596 <wait>:
{
    80001596:	715d                	addi	sp,sp,-80
    80001598:	e486                	sd	ra,72(sp)
    8000159a:	e0a2                	sd	s0,64(sp)
    8000159c:	fc26                	sd	s1,56(sp)
    8000159e:	f84a                	sd	s2,48(sp)
    800015a0:	f44e                	sd	s3,40(sp)
    800015a2:	f052                	sd	s4,32(sp)
    800015a4:	ec56                	sd	s5,24(sp)
    800015a6:	e85a                	sd	s6,16(sp)
    800015a8:	e45e                	sd	s7,8(sp)
    800015aa:	e062                	sd	s8,0(sp)
    800015ac:	0880                	addi	s0,sp,80
    800015ae:	8b2a                	mv	s6,a0
  struct proc *p = myproc();
    800015b0:	fb6ff0ef          	jal	80000d66 <myproc>
    800015b4:	892a                	mv	s2,a0
  acquire(&wait_lock);
    800015b6:	00009517          	auipc	a0,0x9
    800015ba:	c9250513          	addi	a0,a0,-878 # 8000a248 <wait_lock>
    800015be:	172040ef          	jal	80005730 <acquire>
    havekids = 0;
    800015c2:	4b81                	li	s7,0
        if(pp->state == ZOMBIE){
    800015c4:	4a15                	li	s4,5
        havekids = 1;
    800015c6:	4a85                	li	s5,1
    for(pp = proc; pp < &proc[NPROC]; pp++){
    800015c8:	00015997          	auipc	s3,0x15
    800015cc:	a9898993          	addi	s3,s3,-1384 # 80016060 <tickslock>
    sleep(p, &wait_lock);  //DOC: wait-sleep
    800015d0:	00009c17          	auipc	s8,0x9
    800015d4:	c78c0c13          	addi	s8,s8,-904 # 8000a248 <wait_lock>
    800015d8:	a871                	j	80001674 <wait+0xde>
          pid = pp->pid;
    800015da:	0304a983          	lw	s3,48(s1)
          if(addr != 0 && copyout(p->pagetable, addr, (char *)&pp->xstate,
    800015de:	000b0c63          	beqz	s6,800015f6 <wait+0x60>
    800015e2:	4691                	li	a3,4
    800015e4:	02c48613          	addi	a2,s1,44
    800015e8:	85da                	mv	a1,s6
    800015ea:	05093503          	ld	a0,80(s2)
    800015ee:	beaff0ef          	jal	800009d8 <copyout>
    800015f2:	02054b63          	bltz	a0,80001628 <wait+0x92>
          freeproc(pp);
    800015f6:	8526                	mv	a0,s1
    800015f8:	8e1ff0ef          	jal	80000ed8 <freeproc>
          release(&pp->lock);
    800015fc:	8526                	mv	a0,s1
    800015fe:	1ca040ef          	jal	800057c8 <release>
          release(&wait_lock);
    80001602:	00009517          	auipc	a0,0x9
    80001606:	c4650513          	addi	a0,a0,-954 # 8000a248 <wait_lock>
    8000160a:	1be040ef          	jal	800057c8 <release>
}
    8000160e:	854e                	mv	a0,s3
    80001610:	60a6                	ld	ra,72(sp)
    80001612:	6406                	ld	s0,64(sp)
    80001614:	74e2                	ld	s1,56(sp)
    80001616:	7942                	ld	s2,48(sp)
    80001618:	79a2                	ld	s3,40(sp)
    8000161a:	7a02                	ld	s4,32(sp)
    8000161c:	6ae2                	ld	s5,24(sp)
    8000161e:	6b42                	ld	s6,16(sp)
    80001620:	6ba2                	ld	s7,8(sp)
    80001622:	6c02                	ld	s8,0(sp)
    80001624:	6161                	addi	sp,sp,80
    80001626:	8082                	ret
            release(&pp->lock);
    80001628:	8526                	mv	a0,s1
    8000162a:	19e040ef          	jal	800057c8 <release>
            release(&wait_lock);
    8000162e:	00009517          	auipc	a0,0x9
    80001632:	c1a50513          	addi	a0,a0,-998 # 8000a248 <wait_lock>
    80001636:	192040ef          	jal	800057c8 <release>
            return -1;
    8000163a:	59fd                	li	s3,-1
    8000163c:	bfc9                	j	8000160e <wait+0x78>
    for(pp = proc; pp < &proc[NPROC]; pp++){
    8000163e:	2e848493          	addi	s1,s1,744
    80001642:	03348063          	beq	s1,s3,80001662 <wait+0xcc>
      if(pp->parent == p){
    80001646:	7c9c                	ld	a5,56(s1)
    80001648:	ff279be3          	bne	a5,s2,8000163e <wait+0xa8>
        acquire(&pp->lock);
    8000164c:	8526                	mv	a0,s1
    8000164e:	0e2040ef          	jal	80005730 <acquire>
        if(pp->state == ZOMBIE){
    80001652:	4c9c                	lw	a5,24(s1)
    80001654:	f94783e3          	beq	a5,s4,800015da <wait+0x44>
        release(&pp->lock);
    80001658:	8526                	mv	a0,s1
    8000165a:	16e040ef          	jal	800057c8 <release>
        havekids = 1;
    8000165e:	8756                	mv	a4,s5
    80001660:	bff9                	j	8000163e <wait+0xa8>
    if(!havekids || killed(p)){
    80001662:	cf19                	beqz	a4,80001680 <wait+0xea>
    80001664:	854a                	mv	a0,s2
    80001666:	f07ff0ef          	jal	8000156c <killed>
    8000166a:	e919                	bnez	a0,80001680 <wait+0xea>
    sleep(p, &wait_lock);  //DOC: wait-sleep
    8000166c:	85e2                	mv	a1,s8
    8000166e:	854a                	mv	a0,s2
    80001670:	cc5ff0ef          	jal	80001334 <sleep>
    havekids = 0;
    80001674:	875e                	mv	a4,s7
    for(pp = proc; pp < &proc[NPROC]; pp++){
    80001676:	00009497          	auipc	s1,0x9
    8000167a:	fea48493          	addi	s1,s1,-22 # 8000a660 <proc>
    8000167e:	b7e1                	j	80001646 <wait+0xb0>
      release(&wait_lock);
    80001680:	00009517          	auipc	a0,0x9
    80001684:	bc850513          	addi	a0,a0,-1080 # 8000a248 <wait_lock>
    80001688:	140040ef          	jal	800057c8 <release>
      return -1;
    8000168c:	59fd                	li	s3,-1
    8000168e:	b741                	j	8000160e <wait+0x78>

0000000080001690 <either_copyout>:
// Copy to either a user address, or kernel address,
// depending on usr_dst.
// Returns 0 on success, -1 on error.
int
either_copyout(int user_dst, uint64 dst, void *src, uint64 len)
{
    80001690:	7179                	addi	sp,sp,-48
    80001692:	f406                	sd	ra,40(sp)
    80001694:	f022                	sd	s0,32(sp)
    80001696:	ec26                	sd	s1,24(sp)
    80001698:	e84a                	sd	s2,16(sp)
    8000169a:	e44e                	sd	s3,8(sp)
    8000169c:	e052                	sd	s4,0(sp)
    8000169e:	1800                	addi	s0,sp,48
    800016a0:	84aa                	mv	s1,a0
    800016a2:	892e                	mv	s2,a1
    800016a4:	89b2                	mv	s3,a2
    800016a6:	8a36                	mv	s4,a3
  struct proc *p = myproc();
    800016a8:	ebeff0ef          	jal	80000d66 <myproc>
  if(user_dst){
    800016ac:	cc99                	beqz	s1,800016ca <either_copyout+0x3a>
    return copyout(p->pagetable, dst, src, len);
    800016ae:	86d2                	mv	a3,s4
    800016b0:	864e                	mv	a2,s3
    800016b2:	85ca                	mv	a1,s2
    800016b4:	6928                	ld	a0,80(a0)
    800016b6:	b22ff0ef          	jal	800009d8 <copyout>
  } else {
    memmove((char *)dst, src, len);
    return 0;
  }
}
    800016ba:	70a2                	ld	ra,40(sp)
    800016bc:	7402                	ld	s0,32(sp)
    800016be:	64e2                	ld	s1,24(sp)
    800016c0:	6942                	ld	s2,16(sp)
    800016c2:	69a2                	ld	s3,8(sp)
    800016c4:	6a02                	ld	s4,0(sp)
    800016c6:	6145                	addi	sp,sp,48
    800016c8:	8082                	ret
    memmove((char *)dst, src, len);
    800016ca:	000a061b          	sext.w	a2,s4
    800016ce:	85ce                	mv	a1,s3
    800016d0:	854a                	mv	a0,s2
    800016d2:	ad9fe0ef          	jal	800001aa <memmove>
    return 0;
    800016d6:	8526                	mv	a0,s1
    800016d8:	b7cd                	j	800016ba <either_copyout+0x2a>

00000000800016da <either_copyin>:
// Copy from either a user address, or kernel address,
// depending on usr_src.
// Returns 0 on success, -1 on error.
int
either_copyin(void *dst, int user_src, uint64 src, uint64 len)
{
    800016da:	7179                	addi	sp,sp,-48
    800016dc:	f406                	sd	ra,40(sp)
    800016de:	f022                	sd	s0,32(sp)
    800016e0:	ec26                	sd	s1,24(sp)
    800016e2:	e84a                	sd	s2,16(sp)
    800016e4:	e44e                	sd	s3,8(sp)
    800016e6:	e052                	sd	s4,0(sp)
    800016e8:	1800                	addi	s0,sp,48
    800016ea:	892a                	mv	s2,a0
    800016ec:	84ae                	mv	s1,a1
    800016ee:	89b2                	mv	s3,a2
    800016f0:	8a36                	mv	s4,a3
  struct proc *p = myproc();
    800016f2:	e74ff0ef          	jal	80000d66 <myproc>
  if(user_src){
    800016f6:	cc99                	beqz	s1,80001714 <either_copyin+0x3a>
    return copyin(p->pagetable, dst, src, len);
    800016f8:	86d2                	mv	a3,s4
    800016fa:	864e                	mv	a2,s3
    800016fc:	85ca                	mv	a1,s2
    800016fe:	6928                	ld	a0,80(a0)
    80001700:	baeff0ef          	jal	80000aae <copyin>
  } else {
    memmove(dst, (char*)src, len);
    return 0;
  }
}
    80001704:	70a2                	ld	ra,40(sp)
    80001706:	7402                	ld	s0,32(sp)
    80001708:	64e2                	ld	s1,24(sp)
    8000170a:	6942                	ld	s2,16(sp)
    8000170c:	69a2                	ld	s3,8(sp)
    8000170e:	6a02                	ld	s4,0(sp)
    80001710:	6145                	addi	sp,sp,48
    80001712:	8082                	ret
    memmove(dst, (char*)src, len);
    80001714:	000a061b          	sext.w	a2,s4
    80001718:	85ce                	mv	a1,s3
    8000171a:	854a                	mv	a0,s2
    8000171c:	a8ffe0ef          	jal	800001aa <memmove>
    return 0;
    80001720:	8526                	mv	a0,s1
    80001722:	b7cd                	j	80001704 <either_copyin+0x2a>

0000000080001724 <procdump>:
// Print a process listing to console.  For debugging.
// Runs when user types ^P on console.
// No lock to avoid wedging a stuck machine further.
void
procdump(void)
{
    80001724:	715d                	addi	sp,sp,-80
    80001726:	e486                	sd	ra,72(sp)
    80001728:	e0a2                	sd	s0,64(sp)
    8000172a:	fc26                	sd	s1,56(sp)
    8000172c:	f84a                	sd	s2,48(sp)
    8000172e:	f44e                	sd	s3,40(sp)
    80001730:	f052                	sd	s4,32(sp)
    80001732:	ec56                	sd	s5,24(sp)
    80001734:	e85a                	sd	s6,16(sp)
    80001736:	e45e                	sd	s7,8(sp)
    80001738:	0880                	addi	s0,sp,80
  [ZOMBIE]    "zombie"
  };
  struct proc *p;
  char *state;

  printf("\n");
    8000173a:	00006517          	auipc	a0,0x6
    8000173e:	8de50513          	addi	a0,a0,-1826 # 80007018 <etext+0x18>
    80001742:	1ef030ef          	jal	80005130 <printf>
  for(p = proc; p < &proc[NPROC]; p++){
    80001746:	00009497          	auipc	s1,0x9
    8000174a:	1f248493          	addi	s1,s1,498 # 8000a938 <proc+0x2d8>
    8000174e:	00015917          	auipc	s2,0x15
    80001752:	bea90913          	addi	s2,s2,-1046 # 80016338 <bcache+0x2c0>
    if(p->state == UNUSED)
      continue;
    if(p->state >= 0 && p->state < NELEM(states) && states[p->state])
    80001756:	4b15                	li	s6,5
      state = states[p->state];
    else
      state = "???";
    80001758:	00006997          	auipc	s3,0x6
    8000175c:	ae898993          	addi	s3,s3,-1304 # 80007240 <etext+0x240>
    printf("%d %s %s", p->pid, state, p->name);
    80001760:	00006a97          	auipc	s5,0x6
    80001764:	ae8a8a93          	addi	s5,s5,-1304 # 80007248 <etext+0x248>
    printf("\n");
    80001768:	00006a17          	auipc	s4,0x6
    8000176c:	8b0a0a13          	addi	s4,s4,-1872 # 80007018 <etext+0x18>
    if(p->state >= 0 && p->state < NELEM(states) && states[p->state])
    80001770:	00006b97          	auipc	s7,0x6
    80001774:	000b8b93          	mv	s7,s7
    80001778:	a829                	j	80001792 <procdump+0x6e>
    printf("%d %s %s", p->pid, state, p->name);
    8000177a:	d586a583          	lw	a1,-680(a3)
    8000177e:	8556                	mv	a0,s5
    80001780:	1b1030ef          	jal	80005130 <printf>
    printf("\n");
    80001784:	8552                	mv	a0,s4
    80001786:	1ab030ef          	jal	80005130 <printf>
  for(p = proc; p < &proc[NPROC]; p++){
    8000178a:	2e848493          	addi	s1,s1,744
    8000178e:	03248263          	beq	s1,s2,800017b2 <procdump+0x8e>
    if(p->state == UNUSED)
    80001792:	86a6                	mv	a3,s1
    80001794:	d404a783          	lw	a5,-704(s1)
    80001798:	dbed                	beqz	a5,8000178a <procdump+0x66>
      state = "???";
    8000179a:	864e                	mv	a2,s3
    if(p->state >= 0 && p->state < NELEM(states) && states[p->state])
    8000179c:	fcfb6fe3          	bltu	s6,a5,8000177a <procdump+0x56>
    800017a0:	02079713          	slli	a4,a5,0x20
    800017a4:	01d75793          	srli	a5,a4,0x1d
    800017a8:	97de                	add	a5,a5,s7
    800017aa:	6390                	ld	a2,0(a5)
    800017ac:	f679                	bnez	a2,8000177a <procdump+0x56>
      state = "???";
    800017ae:	864e                	mv	a2,s3
    800017b0:	b7e9                	j	8000177a <procdump+0x56>
  }
}
    800017b2:	60a6                	ld	ra,72(sp)
    800017b4:	6406                	ld	s0,64(sp)
    800017b6:	74e2                	ld	s1,56(sp)
    800017b8:	7942                	ld	s2,48(sp)
    800017ba:	79a2                	ld	s3,40(sp)
    800017bc:	7a02                	ld	s4,32(sp)
    800017be:	6ae2                	ld	s5,24(sp)
    800017c0:	6b42                	ld	s6,16(sp)
    800017c2:	6ba2                	ld	s7,8(sp)
    800017c4:	6161                	addi	sp,sp,80
    800017c6:	8082                	ret

00000000800017c8 <swtch>:
    800017c8:	00153023          	sd	ra,0(a0)
    800017cc:	00253423          	sd	sp,8(a0)
    800017d0:	e900                	sd	s0,16(a0)
    800017d2:	ed04                	sd	s1,24(a0)
    800017d4:	03253023          	sd	s2,32(a0)
    800017d8:	03353423          	sd	s3,40(a0)
    800017dc:	03453823          	sd	s4,48(a0)
    800017e0:	03553c23          	sd	s5,56(a0)
    800017e4:	05653023          	sd	s6,64(a0)
    800017e8:	05753423          	sd	s7,72(a0)
    800017ec:	05853823          	sd	s8,80(a0)
    800017f0:	05953c23          	sd	s9,88(a0)
    800017f4:	07a53023          	sd	s10,96(a0)
    800017f8:	07b53423          	sd	s11,104(a0)
    800017fc:	0005b083          	ld	ra,0(a1)
    80001800:	0085b103          	ld	sp,8(a1)
    80001804:	6980                	ld	s0,16(a1)
    80001806:	6d84                	ld	s1,24(a1)
    80001808:	0205b903          	ld	s2,32(a1)
    8000180c:	0285b983          	ld	s3,40(a1)
    80001810:	0305ba03          	ld	s4,48(a1)
    80001814:	0385ba83          	ld	s5,56(a1)
    80001818:	0405bb03          	ld	s6,64(a1)
    8000181c:	0485bb83          	ld	s7,72(a1)
    80001820:	0505bc03          	ld	s8,80(a1)
    80001824:	0585bc83          	ld	s9,88(a1)
    80001828:	0605bd03          	ld	s10,96(a1)
    8000182c:	0685bd83          	ld	s11,104(a1)
    80001830:	8082                	ret

0000000080001832 <trapinit>:
    80001832:	1141                	addi	sp,sp,-16
    80001834:	e406                	sd	ra,8(sp)
    80001836:	e022                	sd	s0,0(sp)
    80001838:	0800                	addi	s0,sp,16
    8000183a:	00006597          	auipc	a1,0x6
    8000183e:	a4e58593          	addi	a1,a1,-1458 # 80007288 <etext+0x288>
    80001842:	00015517          	auipc	a0,0x15
    80001846:	81e50513          	addi	a0,a0,-2018 # 80016060 <tickslock>
    8000184a:	667030ef          	jal	800056b0 <initlock>
    8000184e:	60a2                	ld	ra,8(sp)
    80001850:	6402                	ld	s0,0(sp)
    80001852:	0141                	addi	sp,sp,16
    80001854:	8082                	ret

0000000080001856 <trapinithart>:
    80001856:	1141                	addi	sp,sp,-16
    80001858:	e422                	sd	s0,8(sp)
    8000185a:	0800                	addi	s0,sp,16
    8000185c:	00003797          	auipc	a5,0x3
    80001860:	e1478793          	addi	a5,a5,-492 # 80004670 <kernelvec>
    80001864:	10579073          	csrw	stvec,a5
    80001868:	6422                	ld	s0,8(sp)
    8000186a:	0141                	addi	sp,sp,16
    8000186c:	8082                	ret

000000008000186e <usertrapret>:
    8000186e:	1141                	addi	sp,sp,-16
    80001870:	e406                	sd	ra,8(sp)
    80001872:	e022                	sd	s0,0(sp)
    80001874:	0800                	addi	s0,sp,16
    80001876:	cf0ff0ef          	jal	80000d66 <myproc>
    8000187a:	100027f3          	csrr	a5,sstatus
    8000187e:	9bf5                	andi	a5,a5,-3
    80001880:	10079073          	csrw	sstatus,a5
    80001884:	00004697          	auipc	a3,0x4
    80001888:	77c68693          	addi	a3,a3,1916 # 80006000 <_trampoline>
    8000188c:	00004717          	auipc	a4,0x4
    80001890:	77470713          	addi	a4,a4,1908 # 80006000 <_trampoline>
    80001894:	8f15                	sub	a4,a4,a3
    80001896:	040007b7          	lui	a5,0x4000
    8000189a:	17fd                	addi	a5,a5,-1 # 3ffffff <_entry-0x7c000001>
    8000189c:	07b2                	slli	a5,a5,0xc
    8000189e:	973e                	add	a4,a4,a5
    800018a0:	10571073          	csrw	stvec,a4
    800018a4:	6d38                	ld	a4,88(a0)
    800018a6:	18002673          	csrr	a2,satp
    800018aa:	e310                	sd	a2,0(a4)
    800018ac:	6d30                	ld	a2,88(a0)
    800018ae:	6138                	ld	a4,64(a0)
    800018b0:	6585                	lui	a1,0x1
    800018b2:	972e                	add	a4,a4,a1
    800018b4:	e618                	sd	a4,8(a2)
    800018b6:	6d38                	ld	a4,88(a0)
    800018b8:	00000617          	auipc	a2,0x0
    800018bc:	11060613          	addi	a2,a2,272 # 800019c8 <usertrap>
    800018c0:	eb10                	sd	a2,16(a4)
    800018c2:	6d38                	ld	a4,88(a0)
    800018c4:	8612                	mv	a2,tp
    800018c6:	f310                	sd	a2,32(a4)
    800018c8:	10002773          	csrr	a4,sstatus
    800018cc:	eff77713          	andi	a4,a4,-257
    800018d0:	02076713          	ori	a4,a4,32
    800018d4:	10071073          	csrw	sstatus,a4
    800018d8:	6d38                	ld	a4,88(a0)
    800018da:	6f18                	ld	a4,24(a4)
    800018dc:	14171073          	csrw	sepc,a4
    800018e0:	6928                	ld	a0,80(a0)
    800018e2:	8131                	srli	a0,a0,0xc
    800018e4:	00004717          	auipc	a4,0x4
    800018e8:	7b870713          	addi	a4,a4,1976 # 8000609c <userret>
    800018ec:	8f15                	sub	a4,a4,a3
    800018ee:	97ba                	add	a5,a5,a4
    800018f0:	577d                	li	a4,-1
    800018f2:	177e                	slli	a4,a4,0x3f
    800018f4:	8d59                	or	a0,a0,a4
    800018f6:	9782                	jalr	a5
    800018f8:	60a2                	ld	ra,8(sp)
    800018fa:	6402                	ld	s0,0(sp)
    800018fc:	0141                	addi	sp,sp,16
    800018fe:	8082                	ret

0000000080001900 <clockintr>:
    80001900:	1101                	addi	sp,sp,-32
    80001902:	ec06                	sd	ra,24(sp)
    80001904:	e822                	sd	s0,16(sp)
    80001906:	1000                	addi	s0,sp,32
    80001908:	c32ff0ef          	jal	80000d3a <cpuid>
    8000190c:	cd11                	beqz	a0,80001928 <clockintr+0x28>
    8000190e:	c01027f3          	rdtime	a5
    80001912:	000f4737          	lui	a4,0xf4
    80001916:	24070713          	addi	a4,a4,576 # f4240 <_entry-0x7ff0bdc0>
    8000191a:	97ba                	add	a5,a5,a4
    8000191c:	14d79073          	csrw	stimecmp,a5
    80001920:	60e2                	ld	ra,24(sp)
    80001922:	6442                	ld	s0,16(sp)
    80001924:	6105                	addi	sp,sp,32
    80001926:	8082                	ret
    80001928:	e426                	sd	s1,8(sp)
    8000192a:	00014497          	auipc	s1,0x14
    8000192e:	73648493          	addi	s1,s1,1846 # 80016060 <tickslock>
    80001932:	8526                	mv	a0,s1
    80001934:	5fd030ef          	jal	80005730 <acquire>
    80001938:	00009517          	auipc	a0,0x9
    8000193c:	8c050513          	addi	a0,a0,-1856 # 8000a1f8 <ticks>
    80001940:	411c                	lw	a5,0(a0)
    80001942:	2785                	addiw	a5,a5,1
    80001944:	c11c                	sw	a5,0(a0)
    80001946:	a3bff0ef          	jal	80001380 <wakeup>
    8000194a:	8526                	mv	a0,s1
    8000194c:	67d030ef          	jal	800057c8 <release>
    80001950:	64a2                	ld	s1,8(sp)
    80001952:	bf75                	j	8000190e <clockintr+0xe>

0000000080001954 <devintr>:
    80001954:	1101                	addi	sp,sp,-32
    80001956:	ec06                	sd	ra,24(sp)
    80001958:	e822                	sd	s0,16(sp)
    8000195a:	1000                	addi	s0,sp,32
    8000195c:	14202773          	csrr	a4,scause
    80001960:	57fd                	li	a5,-1
    80001962:	17fe                	slli	a5,a5,0x3f
    80001964:	07a5                	addi	a5,a5,9
    80001966:	00f70c63          	beq	a4,a5,8000197e <devintr+0x2a>
    8000196a:	57fd                	li	a5,-1
    8000196c:	17fe                	slli	a5,a5,0x3f
    8000196e:	0795                	addi	a5,a5,5
    80001970:	4501                	li	a0,0
    80001972:	04f70763          	beq	a4,a5,800019c0 <devintr+0x6c>
    80001976:	60e2                	ld	ra,24(sp)
    80001978:	6442                	ld	s0,16(sp)
    8000197a:	6105                	addi	sp,sp,32
    8000197c:	8082                	ret
    8000197e:	e426                	sd	s1,8(sp)
    80001980:	59d020ef          	jal	8000471c <plic_claim>
    80001984:	84aa                	mv	s1,a0
    80001986:	47a9                	li	a5,10
    80001988:	00f50963          	beq	a0,a5,8000199a <devintr+0x46>
    8000198c:	4785                	li	a5,1
    8000198e:	00f50963          	beq	a0,a5,800019a0 <devintr+0x4c>
    80001992:	4505                	li	a0,1
    80001994:	e889                	bnez	s1,800019a6 <devintr+0x52>
    80001996:	64a2                	ld	s1,8(sp)
    80001998:	bff9                	j	80001976 <devintr+0x22>
    8000199a:	4db030ef          	jal	80005674 <uartintr>
    8000199e:	a819                	j	800019b4 <devintr+0x60>
    800019a0:	242030ef          	jal	80004be2 <virtio_disk_intr>
    800019a4:	a801                	j	800019b4 <devintr+0x60>
    800019a6:	85a6                	mv	a1,s1
    800019a8:	00006517          	auipc	a0,0x6
    800019ac:	8e850513          	addi	a0,a0,-1816 # 80007290 <etext+0x290>
    800019b0:	780030ef          	jal	80005130 <printf>
    800019b4:	8526                	mv	a0,s1
    800019b6:	587020ef          	jal	8000473c <plic_complete>
    800019ba:	4505                	li	a0,1
    800019bc:	64a2                	ld	s1,8(sp)
    800019be:	bf65                	j	80001976 <devintr+0x22>
    800019c0:	f41ff0ef          	jal	80001900 <clockintr>
    800019c4:	4509                	li	a0,2
    800019c6:	bf45                	j	80001976 <devintr+0x22>

00000000800019c8 <usertrap>:
    800019c8:	1101                	addi	sp,sp,-32
    800019ca:	ec06                	sd	ra,24(sp)
    800019cc:	e822                	sd	s0,16(sp)
    800019ce:	e426                	sd	s1,8(sp)
    800019d0:	e04a                	sd	s2,0(sp)
    800019d2:	1000                	addi	s0,sp,32
    800019d4:	100027f3          	csrr	a5,sstatus
    800019d8:	1007f793          	andi	a5,a5,256
    800019dc:	ef85                	bnez	a5,80001a14 <usertrap+0x4c>
    800019de:	00003797          	auipc	a5,0x3
    800019e2:	c9278793          	addi	a5,a5,-878 # 80004670 <kernelvec>
    800019e6:	10579073          	csrw	stvec,a5
    800019ea:	b7cff0ef          	jal	80000d66 <myproc>
    800019ee:	84aa                	mv	s1,a0
    800019f0:	6d3c                	ld	a5,88(a0)
    800019f2:	14102773          	csrr	a4,sepc
    800019f6:	ef98                	sd	a4,24(a5)
    800019f8:	14202773          	csrr	a4,scause
    800019fc:	47a1                	li	a5,8
    800019fe:	02f70163          	beq	a4,a5,80001a20 <usertrap+0x58>
    80001a02:	f53ff0ef          	jal	80001954 <devintr>
    80001a06:	892a                	mv	s2,a0
    80001a08:	c135                	beqz	a0,80001a6c <usertrap+0xa4>
    80001a0a:	8526                	mv	a0,s1
    80001a0c:	b61ff0ef          	jal	8000156c <killed>
    80001a10:	cd1d                	beqz	a0,80001a4e <usertrap+0x86>
    80001a12:	a81d                	j	80001a48 <usertrap+0x80>
    80001a14:	00006517          	auipc	a0,0x6
    80001a18:	89c50513          	addi	a0,a0,-1892 # 800072b0 <etext+0x2b0>
    80001a1c:	1e7030ef          	jal	80005402 <panic>
    80001a20:	b4dff0ef          	jal	8000156c <killed>
    80001a24:	e121                	bnez	a0,80001a64 <usertrap+0x9c>
    80001a26:	6cb8                	ld	a4,88(s1)
    80001a28:	6f1c                	ld	a5,24(a4)
    80001a2a:	0791                	addi	a5,a5,4
    80001a2c:	ef1c                	sd	a5,24(a4)
    80001a2e:	100027f3          	csrr	a5,sstatus
    80001a32:	0027e793          	ori	a5,a5,2
    80001a36:	10079073          	csrw	sstatus,a5
    80001a3a:	248000ef          	jal	80001c82 <syscall>
    80001a3e:	8526                	mv	a0,s1
    80001a40:	b2dff0ef          	jal	8000156c <killed>
    80001a44:	c901                	beqz	a0,80001a54 <usertrap+0x8c>
    80001a46:	4901                	li	s2,0
    80001a48:	557d                	li	a0,-1
    80001a4a:	9f7ff0ef          	jal	80001440 <exit>
    80001a4e:	4789                	li	a5,2
    80001a50:	04f90563          	beq	s2,a5,80001a9a <usertrap+0xd2>
    80001a54:	e1bff0ef          	jal	8000186e <usertrapret>
    80001a58:	60e2                	ld	ra,24(sp)
    80001a5a:	6442                	ld	s0,16(sp)
    80001a5c:	64a2                	ld	s1,8(sp)
    80001a5e:	6902                	ld	s2,0(sp)
    80001a60:	6105                	addi	sp,sp,32
    80001a62:	8082                	ret
    80001a64:	557d                	li	a0,-1
    80001a66:	9dbff0ef          	jal	80001440 <exit>
    80001a6a:	bf75                	j	80001a26 <usertrap+0x5e>
    80001a6c:	142025f3          	csrr	a1,scause
    80001a70:	5890                	lw	a2,48(s1)
    80001a72:	00006517          	auipc	a0,0x6
    80001a76:	85e50513          	addi	a0,a0,-1954 # 800072d0 <etext+0x2d0>
    80001a7a:	6b6030ef          	jal	80005130 <printf>
    80001a7e:	141025f3          	csrr	a1,sepc
    80001a82:	14302673          	csrr	a2,stval
    80001a86:	00006517          	auipc	a0,0x6
    80001a8a:	87a50513          	addi	a0,a0,-1926 # 80007300 <etext+0x300>
    80001a8e:	6a2030ef          	jal	80005130 <printf>
    80001a92:	8526                	mv	a0,s1
    80001a94:	ab5ff0ef          	jal	80001548 <setkilled>
    80001a98:	b75d                	j	80001a3e <usertrap+0x76>
    80001a9a:	86fff0ef          	jal	80001308 <yield>
    80001a9e:	bf5d                	j	80001a54 <usertrap+0x8c>

0000000080001aa0 <kerneltrap>:
    80001aa0:	7179                	addi	sp,sp,-48
    80001aa2:	f406                	sd	ra,40(sp)
    80001aa4:	f022                	sd	s0,32(sp)
    80001aa6:	ec26                	sd	s1,24(sp)
    80001aa8:	e84a                	sd	s2,16(sp)
    80001aaa:	e44e                	sd	s3,8(sp)
    80001aac:	1800                	addi	s0,sp,48
    80001aae:	14102973          	csrr	s2,sepc
    80001ab2:	100024f3          	csrr	s1,sstatus
    80001ab6:	142029f3          	csrr	s3,scause
    80001aba:	1004f793          	andi	a5,s1,256
    80001abe:	c795                	beqz	a5,80001aea <kerneltrap+0x4a>
    80001ac0:	100027f3          	csrr	a5,sstatus
    80001ac4:	8b89                	andi	a5,a5,2
    80001ac6:	eb85                	bnez	a5,80001af6 <kerneltrap+0x56>
    80001ac8:	e8dff0ef          	jal	80001954 <devintr>
    80001acc:	c91d                	beqz	a0,80001b02 <kerneltrap+0x62>
    80001ace:	4789                	li	a5,2
    80001ad0:	04f50a63          	beq	a0,a5,80001b24 <kerneltrap+0x84>
    80001ad4:	14191073          	csrw	sepc,s2
    80001ad8:	10049073          	csrw	sstatus,s1
    80001adc:	70a2                	ld	ra,40(sp)
    80001ade:	7402                	ld	s0,32(sp)
    80001ae0:	64e2                	ld	s1,24(sp)
    80001ae2:	6942                	ld	s2,16(sp)
    80001ae4:	69a2                	ld	s3,8(sp)
    80001ae6:	6145                	addi	sp,sp,48
    80001ae8:	8082                	ret
    80001aea:	00006517          	auipc	a0,0x6
    80001aee:	83e50513          	addi	a0,a0,-1986 # 80007328 <etext+0x328>
    80001af2:	111030ef          	jal	80005402 <panic>
    80001af6:	00006517          	auipc	a0,0x6
    80001afa:	85a50513          	addi	a0,a0,-1958 # 80007350 <etext+0x350>
    80001afe:	105030ef          	jal	80005402 <panic>
    80001b02:	14102673          	csrr	a2,sepc
    80001b06:	143026f3          	csrr	a3,stval
    80001b0a:	85ce                	mv	a1,s3
    80001b0c:	00006517          	auipc	a0,0x6
    80001b10:	86450513          	addi	a0,a0,-1948 # 80007370 <etext+0x370>
    80001b14:	61c030ef          	jal	80005130 <printf>
    80001b18:	00006517          	auipc	a0,0x6
    80001b1c:	88050513          	addi	a0,a0,-1920 # 80007398 <etext+0x398>
    80001b20:	0e3030ef          	jal	80005402 <panic>
    80001b24:	a42ff0ef          	jal	80000d66 <myproc>
    80001b28:	d555                	beqz	a0,80001ad4 <kerneltrap+0x34>
    80001b2a:	fdeff0ef          	jal	80001308 <yield>
    80001b2e:	b75d                	j	80001ad4 <kerneltrap+0x34>

0000000080001b30 <argraw>:
  return strlen(buf);
}

static uint64
argraw(int n)
{
    80001b30:	1101                	addi	sp,sp,-32
    80001b32:	ec06                	sd	ra,24(sp)
    80001b34:	e822                	sd	s0,16(sp)
    80001b36:	e426                	sd	s1,8(sp)
    80001b38:	1000                	addi	s0,sp,32
    80001b3a:	84aa                	mv	s1,a0
  struct proc *p = myproc();
    80001b3c:	a2aff0ef          	jal	80000d66 <myproc>
  switch (n) {
    80001b40:	4795                	li	a5,5
    80001b42:	0497e163          	bltu	a5,s1,80001b84 <argraw+0x54>
    80001b46:	048a                	slli	s1,s1,0x2
    80001b48:	00006717          	auipc	a4,0x6
    80001b4c:	c5870713          	addi	a4,a4,-936 # 800077a0 <states.0+0x30>
    80001b50:	94ba                	add	s1,s1,a4
    80001b52:	409c                	lw	a5,0(s1)
    80001b54:	97ba                	add	a5,a5,a4
    80001b56:	8782                	jr	a5
  case 0:
    return p->trapframe->a0;
    80001b58:	6d3c                	ld	a5,88(a0)
    80001b5a:	7ba8                	ld	a0,112(a5)
  case 5:
    return p->trapframe->a5;
  }
  panic("argraw");
  return -1;
}
    80001b5c:	60e2                	ld	ra,24(sp)
    80001b5e:	6442                	ld	s0,16(sp)
    80001b60:	64a2                	ld	s1,8(sp)
    80001b62:	6105                	addi	sp,sp,32
    80001b64:	8082                	ret
    return p->trapframe->a1;
    80001b66:	6d3c                	ld	a5,88(a0)
    80001b68:	7fa8                	ld	a0,120(a5)
    80001b6a:	bfcd                	j	80001b5c <argraw+0x2c>
    return p->trapframe->a2;
    80001b6c:	6d3c                	ld	a5,88(a0)
    80001b6e:	63c8                	ld	a0,128(a5)
    80001b70:	b7f5                	j	80001b5c <argraw+0x2c>
    return p->trapframe->a3;
    80001b72:	6d3c                	ld	a5,88(a0)
    80001b74:	67c8                	ld	a0,136(a5)
    80001b76:	b7dd                	j	80001b5c <argraw+0x2c>
    return p->trapframe->a4;
    80001b78:	6d3c                	ld	a5,88(a0)
    80001b7a:	6bc8                	ld	a0,144(a5)
    80001b7c:	b7c5                	j	80001b5c <argraw+0x2c>
    return p->trapframe->a5;
    80001b7e:	6d3c                	ld	a5,88(a0)
    80001b80:	6fc8                	ld	a0,152(a5)
    80001b82:	bfe9                	j	80001b5c <argraw+0x2c>
  panic("argraw");
    80001b84:	00006517          	auipc	a0,0x6
    80001b88:	82450513          	addi	a0,a0,-2012 # 800073a8 <etext+0x3a8>
    80001b8c:	077030ef          	jal	80005402 <panic>

0000000080001b90 <fetchaddr>:
{
    80001b90:	1101                	addi	sp,sp,-32
    80001b92:	ec06                	sd	ra,24(sp)
    80001b94:	e822                	sd	s0,16(sp)
    80001b96:	e426                	sd	s1,8(sp)
    80001b98:	e04a                	sd	s2,0(sp)
    80001b9a:	1000                	addi	s0,sp,32
    80001b9c:	84aa                	mv	s1,a0
    80001b9e:	892e                	mv	s2,a1
  struct proc *p = myproc();
    80001ba0:	9c6ff0ef          	jal	80000d66 <myproc>
  if(addr >= p->sz || addr+sizeof(uint64) > p->sz) // both tests needed, in case of overflow
    80001ba4:	653c                	ld	a5,72(a0)
    80001ba6:	02f4f663          	bgeu	s1,a5,80001bd2 <fetchaddr+0x42>
    80001baa:	00848713          	addi	a4,s1,8
    80001bae:	02e7e463          	bltu	a5,a4,80001bd6 <fetchaddr+0x46>
  if(copyin(p->pagetable, (char *)ip, addr, sizeof(*ip)) != 0)
    80001bb2:	46a1                	li	a3,8
    80001bb4:	8626                	mv	a2,s1
    80001bb6:	85ca                	mv	a1,s2
    80001bb8:	6928                	ld	a0,80(a0)
    80001bba:	ef5fe0ef          	jal	80000aae <copyin>
    80001bbe:	00a03533          	snez	a0,a0
    80001bc2:	40a00533          	neg	a0,a0
}
    80001bc6:	60e2                	ld	ra,24(sp)
    80001bc8:	6442                	ld	s0,16(sp)
    80001bca:	64a2                	ld	s1,8(sp)
    80001bcc:	6902                	ld	s2,0(sp)
    80001bce:	6105                	addi	sp,sp,32
    80001bd0:	8082                	ret
    return -1;
    80001bd2:	557d                	li	a0,-1
    80001bd4:	bfcd                	j	80001bc6 <fetchaddr+0x36>
    80001bd6:	557d                	li	a0,-1
    80001bd8:	b7fd                	j	80001bc6 <fetchaddr+0x36>

0000000080001bda <fetchstr>:
{
    80001bda:	7179                	addi	sp,sp,-48
    80001bdc:	f406                	sd	ra,40(sp)
    80001bde:	f022                	sd	s0,32(sp)
    80001be0:	ec26                	sd	s1,24(sp)
    80001be2:	e84a                	sd	s2,16(sp)
    80001be4:	e44e                	sd	s3,8(sp)
    80001be6:	1800                	addi	s0,sp,48
    80001be8:	892a                	mv	s2,a0
    80001bea:	84ae                	mv	s1,a1
    80001bec:	89b2                	mv	s3,a2
  struct proc *p = myproc();
    80001bee:	978ff0ef          	jal	80000d66 <myproc>
  if(copyinstr(p->pagetable, buf, addr, max) < 0)
    80001bf2:	86ce                	mv	a3,s3
    80001bf4:	864a                	mv	a2,s2
    80001bf6:	85a6                	mv	a1,s1
    80001bf8:	6928                	ld	a0,80(a0)
    80001bfa:	f3bfe0ef          	jal	80000b34 <copyinstr>
    80001bfe:	00054c63          	bltz	a0,80001c16 <fetchstr+0x3c>
  return strlen(buf);
    80001c02:	8526                	mv	a0,s1
    80001c04:	ebafe0ef          	jal	800002be <strlen>
}
    80001c08:	70a2                	ld	ra,40(sp)
    80001c0a:	7402                	ld	s0,32(sp)
    80001c0c:	64e2                	ld	s1,24(sp)
    80001c0e:	6942                	ld	s2,16(sp)
    80001c10:	69a2                	ld	s3,8(sp)
    80001c12:	6145                	addi	sp,sp,48
    80001c14:	8082                	ret
    return -1;
    80001c16:	557d                	li	a0,-1
    80001c18:	bfc5                	j	80001c08 <fetchstr+0x2e>

0000000080001c1a <argint>:

// Fetch the nth 32-bit system call argument.
void
argint(int n, int *ip)
{
    80001c1a:	1101                	addi	sp,sp,-32
    80001c1c:	ec06                	sd	ra,24(sp)
    80001c1e:	e822                	sd	s0,16(sp)
    80001c20:	e426                	sd	s1,8(sp)
    80001c22:	1000                	addi	s0,sp,32
    80001c24:	84ae                	mv	s1,a1
  *ip = argraw(n);
    80001c26:	f0bff0ef          	jal	80001b30 <argraw>
    80001c2a:	c088                	sw	a0,0(s1)
}
    80001c2c:	60e2                	ld	ra,24(sp)
    80001c2e:	6442                	ld	s0,16(sp)
    80001c30:	64a2                	ld	s1,8(sp)
    80001c32:	6105                	addi	sp,sp,32
    80001c34:	8082                	ret

0000000080001c36 <argaddr>:
// Retrieve an argument as a pointer.
// Doesn't check for legality, since
// copyin/copyout will do that.
void
argaddr(int n, uint64 *ip)
{
    80001c36:	1101                	addi	sp,sp,-32
    80001c38:	ec06                	sd	ra,24(sp)
    80001c3a:	e822                	sd	s0,16(sp)
    80001c3c:	e426                	sd	s1,8(sp)
    80001c3e:	1000                	addi	s0,sp,32
    80001c40:	84ae                	mv	s1,a1
  *ip = argraw(n);
    80001c42:	eefff0ef          	jal	80001b30 <argraw>
    80001c46:	e088                	sd	a0,0(s1)
}
    80001c48:	60e2                	ld	ra,24(sp)
    80001c4a:	6442                	ld	s0,16(sp)
    80001c4c:	64a2                	ld	s1,8(sp)
    80001c4e:	6105                	addi	sp,sp,32
    80001c50:	8082                	ret

0000000080001c52 <argstr>:
// Fetch the nth word-sized system call argument as a null-terminated string.
// Copies into buf, at most max.
// Returns string length if OK (including nul), -1 if error.
int
argstr(int n, char *buf, int max)
{
    80001c52:	7179                	addi	sp,sp,-48
    80001c54:	f406                	sd	ra,40(sp)
    80001c56:	f022                	sd	s0,32(sp)
    80001c58:	ec26                	sd	s1,24(sp)
    80001c5a:	e84a                	sd	s2,16(sp)
    80001c5c:	1800                	addi	s0,sp,48
    80001c5e:	84ae                	mv	s1,a1
    80001c60:	8932                	mv	s2,a2
  uint64 addr;
  argaddr(n, &addr);
    80001c62:	fd840593          	addi	a1,s0,-40
    80001c66:	fd1ff0ef          	jal	80001c36 <argaddr>
  return fetchstr(addr, buf, max);
    80001c6a:	864a                	mv	a2,s2
    80001c6c:	85a6                	mv	a1,s1
    80001c6e:	fd843503          	ld	a0,-40(s0)
    80001c72:	f69ff0ef          	jal	80001bda <fetchstr>
}
    80001c76:	70a2                	ld	ra,40(sp)
    80001c78:	7402                	ld	s0,32(sp)
    80001c7a:	64e2                	ld	s1,24(sp)
    80001c7c:	6942                	ld	s2,16(sp)
    80001c7e:	6145                	addi	sp,sp,48
    80001c80:	8082                	ret

0000000080001c82 <syscall>:
[SYS_close]   sys_close,
};

void
syscall(void)
{
    80001c82:	1101                	addi	sp,sp,-32
    80001c84:	ec06                	sd	ra,24(sp)
    80001c86:	e822                	sd	s0,16(sp)
    80001c88:	e426                	sd	s1,8(sp)
    80001c8a:	e04a                	sd	s2,0(sp)
    80001c8c:	1000                	addi	s0,sp,32
  int num;
  struct proc *p = myproc();
    80001c8e:	8d8ff0ef          	jal	80000d66 <myproc>
    80001c92:	84aa                	mv	s1,a0

  num = p->trapframe->a7;
    80001c94:	05853903          	ld	s2,88(a0)
    80001c98:	0a893783          	ld	a5,168(s2)
    80001c9c:	0007869b          	sext.w	a3,a5
  if(num > 0 && num < NELEM(syscalls) && syscalls[num]) {
    80001ca0:	37fd                	addiw	a5,a5,-1
    80001ca2:	4751                	li	a4,20
    80001ca4:	00f76f63          	bltu	a4,a5,80001cc2 <syscall+0x40>
    80001ca8:	00369713          	slli	a4,a3,0x3
    80001cac:	00006797          	auipc	a5,0x6
    80001cb0:	b0c78793          	addi	a5,a5,-1268 # 800077b8 <syscalls>
    80001cb4:	97ba                	add	a5,a5,a4
    80001cb6:	639c                	ld	a5,0(a5)
    80001cb8:	c789                	beqz	a5,80001cc2 <syscall+0x40>
    // Use num to lookup the system call function for num, call it,
    // and store its return value in p->trapframe->a0
    p->trapframe->a0 = syscalls[num]();
    80001cba:	9782                	jalr	a5
    80001cbc:	06a93823          	sd	a0,112(s2)
    80001cc0:	a829                	j	80001cda <syscall+0x58>
  } else {
    printf("%d %s: unknown sys call %d\n",
    80001cc2:	2d848613          	addi	a2,s1,728
    80001cc6:	588c                	lw	a1,48(s1)
    80001cc8:	00005517          	auipc	a0,0x5
    80001ccc:	6e850513          	addi	a0,a0,1768 # 800073b0 <etext+0x3b0>
    80001cd0:	460030ef          	jal	80005130 <printf>
            p->pid, p->name, num);
    p->trapframe->a0 = -1;
    80001cd4:	6cbc                	ld	a5,88(s1)
    80001cd6:	577d                	li	a4,-1
    80001cd8:	fbb8                	sd	a4,112(a5)
  }
}
    80001cda:	60e2                	ld	ra,24(sp)
    80001cdc:	6442                	ld	s0,16(sp)
    80001cde:	64a2                	ld	s1,8(sp)
    80001ce0:	6902                	ld	s2,0(sp)
    80001ce2:	6105                	addi	sp,sp,32
    80001ce4:	8082                	ret

0000000080001ce6 <sys_exit>:
#include "spinlock.h"
#include "proc.h"

uint64
sys_exit(void)
{
    80001ce6:	1101                	addi	sp,sp,-32
    80001ce8:	ec06                	sd	ra,24(sp)
    80001cea:	e822                	sd	s0,16(sp)
    80001cec:	1000                	addi	s0,sp,32
  int n;
  argint(0, &n);
    80001cee:	fec40593          	addi	a1,s0,-20
    80001cf2:	4501                	li	a0,0
    80001cf4:	f27ff0ef          	jal	80001c1a <argint>
  exit(n);
    80001cf8:	fec42503          	lw	a0,-20(s0)
    80001cfc:	f44ff0ef          	jal	80001440 <exit>
  return 0;  // not reached
}
    80001d00:	4501                	li	a0,0
    80001d02:	60e2                	ld	ra,24(sp)
    80001d04:	6442                	ld	s0,16(sp)
    80001d06:	6105                	addi	sp,sp,32
    80001d08:	8082                	ret

0000000080001d0a <sys_getpid>:

uint64
sys_getpid(void)
{
    80001d0a:	1141                	addi	sp,sp,-16
    80001d0c:	e406                	sd	ra,8(sp)
    80001d0e:	e022                	sd	s0,0(sp)
    80001d10:	0800                	addi	s0,sp,16
  return myproc()->pid;
    80001d12:	854ff0ef          	jal	80000d66 <myproc>
}
    80001d16:	5908                	lw	a0,48(a0)
    80001d18:	60a2                	ld	ra,8(sp)
    80001d1a:	6402                	ld	s0,0(sp)
    80001d1c:	0141                	addi	sp,sp,16
    80001d1e:	8082                	ret

0000000080001d20 <sys_fork>:

uint64
sys_fork(void)
{
    80001d20:	1141                	addi	sp,sp,-16
    80001d22:	e406                	sd	ra,8(sp)
    80001d24:	e022                	sd	s0,0(sp)
    80001d26:	0800                	addi	s0,sp,16
  return fork();
    80001d28:	b64ff0ef          	jal	8000108c <fork>
}
    80001d2c:	60a2                	ld	ra,8(sp)
    80001d2e:	6402                	ld	s0,0(sp)
    80001d30:	0141                	addi	sp,sp,16
    80001d32:	8082                	ret

0000000080001d34 <sys_wait>:

uint64
sys_wait(void)
{
    80001d34:	1101                	addi	sp,sp,-32
    80001d36:	ec06                	sd	ra,24(sp)
    80001d38:	e822                	sd	s0,16(sp)
    80001d3a:	1000                	addi	s0,sp,32
  uint64 p;
  argaddr(0, &p);
    80001d3c:	fe840593          	addi	a1,s0,-24
    80001d40:	4501                	li	a0,0
    80001d42:	ef5ff0ef          	jal	80001c36 <argaddr>
  return wait(p);
    80001d46:	fe843503          	ld	a0,-24(s0)
    80001d4a:	84dff0ef          	jal	80001596 <wait>
}
    80001d4e:	60e2                	ld	ra,24(sp)
    80001d50:	6442                	ld	s0,16(sp)
    80001d52:	6105                	addi	sp,sp,32
    80001d54:	8082                	ret

0000000080001d56 <sys_sbrk>:

uint64
sys_sbrk(void)
{
    80001d56:	7179                	addi	sp,sp,-48
    80001d58:	f406                	sd	ra,40(sp)
    80001d5a:	f022                	sd	s0,32(sp)
    80001d5c:	ec26                	sd	s1,24(sp)
    80001d5e:	1800                	addi	s0,sp,48
  uint64 addr;
  int n;

  argint(0, &n);
    80001d60:	fdc40593          	addi	a1,s0,-36
    80001d64:	4501                	li	a0,0
    80001d66:	eb5ff0ef          	jal	80001c1a <argint>
  addr = myproc()->sz;
    80001d6a:	ffdfe0ef          	jal	80000d66 <myproc>
    80001d6e:	6524                	ld	s1,72(a0)
  if(growproc(n) < 0)
    80001d70:	fdc42503          	lw	a0,-36(s0)
    80001d74:	ac8ff0ef          	jal	8000103c <growproc>
    80001d78:	00054863          	bltz	a0,80001d88 <sys_sbrk+0x32>
    return -1;
  return addr;
}
    80001d7c:	8526                	mv	a0,s1
    80001d7e:	70a2                	ld	ra,40(sp)
    80001d80:	7402                	ld	s0,32(sp)
    80001d82:	64e2                	ld	s1,24(sp)
    80001d84:	6145                	addi	sp,sp,48
    80001d86:	8082                	ret
    return -1;
    80001d88:	54fd                	li	s1,-1
    80001d8a:	bfcd                	j	80001d7c <sys_sbrk+0x26>

0000000080001d8c <sys_sleep>:

uint64
sys_sleep(void)
{
    80001d8c:	7139                	addi	sp,sp,-64
    80001d8e:	fc06                	sd	ra,56(sp)
    80001d90:	f822                	sd	s0,48(sp)
    80001d92:	f04a                	sd	s2,32(sp)
    80001d94:	0080                	addi	s0,sp,64
  int n;
  uint ticks0;

  argint(0, &n);
    80001d96:	fcc40593          	addi	a1,s0,-52
    80001d9a:	4501                	li	a0,0
    80001d9c:	e7fff0ef          	jal	80001c1a <argint>
  if(n < 0)
    80001da0:	fcc42783          	lw	a5,-52(s0)
    80001da4:	0607c763          	bltz	a5,80001e12 <sys_sleep+0x86>
    n = 0;
  acquire(&tickslock);
    80001da8:	00014517          	auipc	a0,0x14
    80001dac:	2b850513          	addi	a0,a0,696 # 80016060 <tickslock>
    80001db0:	181030ef          	jal	80005730 <acquire>
  ticks0 = ticks;
    80001db4:	00008917          	auipc	s2,0x8
    80001db8:	44492903          	lw	s2,1092(s2) # 8000a1f8 <ticks>
  while(ticks - ticks0 < n){
    80001dbc:	fcc42783          	lw	a5,-52(s0)
    80001dc0:	cf8d                	beqz	a5,80001dfa <sys_sleep+0x6e>
    80001dc2:	f426                	sd	s1,40(sp)
    80001dc4:	ec4e                	sd	s3,24(sp)
    if(killed(myproc())){
      release(&tickslock);
      return -1;
    }
    sleep(&ticks, &tickslock);
    80001dc6:	00014997          	auipc	s3,0x14
    80001dca:	29a98993          	addi	s3,s3,666 # 80016060 <tickslock>
    80001dce:	00008497          	auipc	s1,0x8
    80001dd2:	42a48493          	addi	s1,s1,1066 # 8000a1f8 <ticks>
    if(killed(myproc())){
    80001dd6:	f91fe0ef          	jal	80000d66 <myproc>
    80001dda:	f92ff0ef          	jal	8000156c <killed>
    80001dde:	ed0d                	bnez	a0,80001e18 <sys_sleep+0x8c>
    sleep(&ticks, &tickslock);
    80001de0:	85ce                	mv	a1,s3
    80001de2:	8526                	mv	a0,s1
    80001de4:	d50ff0ef          	jal	80001334 <sleep>
  while(ticks - ticks0 < n){
    80001de8:	409c                	lw	a5,0(s1)
    80001dea:	412787bb          	subw	a5,a5,s2
    80001dee:	fcc42703          	lw	a4,-52(s0)
    80001df2:	fee7e2e3          	bltu	a5,a4,80001dd6 <sys_sleep+0x4a>
    80001df6:	74a2                	ld	s1,40(sp)
    80001df8:	69e2                	ld	s3,24(sp)
  }
  release(&tickslock);
    80001dfa:	00014517          	auipc	a0,0x14
    80001dfe:	26650513          	addi	a0,a0,614 # 80016060 <tickslock>
    80001e02:	1c7030ef          	jal	800057c8 <release>
  return 0;
    80001e06:	4501                	li	a0,0
}
    80001e08:	70e2                	ld	ra,56(sp)
    80001e0a:	7442                	ld	s0,48(sp)
    80001e0c:	7902                	ld	s2,32(sp)
    80001e0e:	6121                	addi	sp,sp,64
    80001e10:	8082                	ret
    n = 0;
    80001e12:	fc042623          	sw	zero,-52(s0)
    80001e16:	bf49                	j	80001da8 <sys_sleep+0x1c>
      release(&tickslock);
    80001e18:	00014517          	auipc	a0,0x14
    80001e1c:	24850513          	addi	a0,a0,584 # 80016060 <tickslock>
    80001e20:	1a9030ef          	jal	800057c8 <release>
      return -1;
    80001e24:	557d                	li	a0,-1
    80001e26:	74a2                	ld	s1,40(sp)
    80001e28:	69e2                	ld	s3,24(sp)
    80001e2a:	bff9                	j	80001e08 <sys_sleep+0x7c>

0000000080001e2c <sys_kill>:

uint64
sys_kill(void)
{
    80001e2c:	1101                	addi	sp,sp,-32
    80001e2e:	ec06                	sd	ra,24(sp)
    80001e30:	e822                	sd	s0,16(sp)
    80001e32:	1000                	addi	s0,sp,32
  int pid;

  argint(0, &pid);
    80001e34:	fec40593          	addi	a1,s0,-20
    80001e38:	4501                	li	a0,0
    80001e3a:	de1ff0ef          	jal	80001c1a <argint>
  return kill(pid);
    80001e3e:	fec42503          	lw	a0,-20(s0)
    80001e42:	ea0ff0ef          	jal	800014e2 <kill>
}
    80001e46:	60e2                	ld	ra,24(sp)
    80001e48:	6442                	ld	s0,16(sp)
    80001e4a:	6105                	addi	sp,sp,32
    80001e4c:	8082                	ret

0000000080001e4e <sys_uptime>:

// return how many clock tick interrupts have occurred
// since start.
uint64
sys_uptime(void)
{
    80001e4e:	1101                	addi	sp,sp,-32
    80001e50:	ec06                	sd	ra,24(sp)
    80001e52:	e822                	sd	s0,16(sp)
    80001e54:	e426                	sd	s1,8(sp)
    80001e56:	1000                	addi	s0,sp,32
  uint xticks;

  acquire(&tickslock);
    80001e58:	00014517          	auipc	a0,0x14
    80001e5c:	20850513          	addi	a0,a0,520 # 80016060 <tickslock>
    80001e60:	0d1030ef          	jal	80005730 <acquire>
  xticks = ticks;
    80001e64:	00008497          	auipc	s1,0x8
    80001e68:	3944a483          	lw	s1,916(s1) # 8000a1f8 <ticks>
  release(&tickslock);
    80001e6c:	00014517          	auipc	a0,0x14
    80001e70:	1f450513          	addi	a0,a0,500 # 80016060 <tickslock>
    80001e74:	155030ef          	jal	800057c8 <release>
  return xticks;
}
    80001e78:	02049513          	slli	a0,s1,0x20
    80001e7c:	9101                	srli	a0,a0,0x20
    80001e7e:	60e2                	ld	ra,24(sp)
    80001e80:	6442                	ld	s0,16(sp)
    80001e82:	64a2                	ld	s1,8(sp)
    80001e84:	6105                	addi	sp,sp,32
    80001e86:	8082                	ret

0000000080001e88 <binit>:
  struct buf head;
} bcache;

void
binit(void)
{
    80001e88:	7179                	addi	sp,sp,-48
    80001e8a:	f406                	sd	ra,40(sp)
    80001e8c:	f022                	sd	s0,32(sp)
    80001e8e:	ec26                	sd	s1,24(sp)
    80001e90:	e84a                	sd	s2,16(sp)
    80001e92:	e44e                	sd	s3,8(sp)
    80001e94:	e052                	sd	s4,0(sp)
    80001e96:	1800                	addi	s0,sp,48
  struct buf *b;

  initlock(&bcache.lock, "bcache");
    80001e98:	00005597          	auipc	a1,0x5
    80001e9c:	53858593          	addi	a1,a1,1336 # 800073d0 <etext+0x3d0>
    80001ea0:	00014517          	auipc	a0,0x14
    80001ea4:	1d850513          	addi	a0,a0,472 # 80016078 <bcache>
    80001ea8:	009030ef          	jal	800056b0 <initlock>

  // Create linked list of buffers
  bcache.head.prev = &bcache.head;
    80001eac:	00024797          	auipc	a5,0x24
    80001eb0:	1cc78793          	addi	a5,a5,460 # 80026078 <bcache+0x10000>
    80001eb4:	00024717          	auipc	a4,0x24
    80001eb8:	67c70713          	addi	a4,a4,1660 # 80026530 <bcache+0x104b8>
    80001ebc:	50e7b023          	sd	a4,1280(a5)
  bcache.head.next = &bcache.head;
    80001ec0:	50e7b423          	sd	a4,1288(a5)
  for(b = bcache.buf; b < bcache.buf+NBUF; b++){
    80001ec4:	00014497          	auipc	s1,0x14
    80001ec8:	1cc48493          	addi	s1,s1,460 # 80016090 <bcache+0x18>
    b->next = bcache.head.next;
    80001ecc:	893e                	mv	s2,a5
    b->prev = &bcache.head;
    80001ece:	89ba                	mv	s3,a4
    initsleeplock(&b->lock, "buffer");
    80001ed0:	00005a17          	auipc	s4,0x5
    80001ed4:	508a0a13          	addi	s4,s4,1288 # 800073d8 <etext+0x3d8>
    b->next = bcache.head.next;
    80001ed8:	50893783          	ld	a5,1288(s2)
    80001edc:	e8bc                	sd	a5,80(s1)
    b->prev = &bcache.head;
    80001ede:	0534b423          	sd	s3,72(s1)
    initsleeplock(&b->lock, "buffer");
    80001ee2:	85d2                	mv	a1,s4
    80001ee4:	01048513          	addi	a0,s1,16
    80001ee8:	24c010ef          	jal	80003134 <initsleeplock>
    bcache.head.next->prev = b;
    80001eec:	50893783          	ld	a5,1288(s2)
    80001ef0:	e7a4                	sd	s1,72(a5)
    bcache.head.next = b;
    80001ef2:	50993423          	sd	s1,1288(s2)
  for(b = bcache.buf; b < bcache.buf+NBUF; b++){
    80001ef6:	45848493          	addi	s1,s1,1112
    80001efa:	fd349fe3          	bne	s1,s3,80001ed8 <binit+0x50>
  }
}
    80001efe:	70a2                	ld	ra,40(sp)
    80001f00:	7402                	ld	s0,32(sp)
    80001f02:	64e2                	ld	s1,24(sp)
    80001f04:	6942                	ld	s2,16(sp)
    80001f06:	69a2                	ld	s3,8(sp)
    80001f08:	6a02                	ld	s4,0(sp)
    80001f0a:	6145                	addi	sp,sp,48
    80001f0c:	8082                	ret

0000000080001f0e <bread>:
}

// Return a locked buf with the contents of the indicated block.
struct buf*
bread(uint dev, uint blockno)
{
    80001f0e:	7179                	addi	sp,sp,-48
    80001f10:	f406                	sd	ra,40(sp)
    80001f12:	f022                	sd	s0,32(sp)
    80001f14:	ec26                	sd	s1,24(sp)
    80001f16:	e84a                	sd	s2,16(sp)
    80001f18:	e44e                	sd	s3,8(sp)
    80001f1a:	1800                	addi	s0,sp,48
    80001f1c:	892a                	mv	s2,a0
    80001f1e:	89ae                	mv	s3,a1
  acquire(&bcache.lock);
    80001f20:	00014517          	auipc	a0,0x14
    80001f24:	15850513          	addi	a0,a0,344 # 80016078 <bcache>
    80001f28:	009030ef          	jal	80005730 <acquire>
  for(b = bcache.head.next; b != &bcache.head; b = b->next){
    80001f2c:	00024497          	auipc	s1,0x24
    80001f30:	6544b483          	ld	s1,1620(s1) # 80026580 <bcache+0x10508>
    80001f34:	00024797          	auipc	a5,0x24
    80001f38:	5fc78793          	addi	a5,a5,1532 # 80026530 <bcache+0x104b8>
    80001f3c:	02f48b63          	beq	s1,a5,80001f72 <bread+0x64>
    80001f40:	873e                	mv	a4,a5
    80001f42:	a021                	j	80001f4a <bread+0x3c>
    80001f44:	68a4                	ld	s1,80(s1)
    80001f46:	02e48663          	beq	s1,a4,80001f72 <bread+0x64>
    if(b->dev == dev && b->blockno == blockno){
    80001f4a:	449c                	lw	a5,8(s1)
    80001f4c:	ff279ce3          	bne	a5,s2,80001f44 <bread+0x36>
    80001f50:	44dc                	lw	a5,12(s1)
    80001f52:	ff3799e3          	bne	a5,s3,80001f44 <bread+0x36>
      b->refcnt++;
    80001f56:	40bc                	lw	a5,64(s1)
    80001f58:	2785                	addiw	a5,a5,1
    80001f5a:	c0bc                	sw	a5,64(s1)
      release(&bcache.lock);
    80001f5c:	00014517          	auipc	a0,0x14
    80001f60:	11c50513          	addi	a0,a0,284 # 80016078 <bcache>
    80001f64:	065030ef          	jal	800057c8 <release>
      acquiresleep(&b->lock);
    80001f68:	01048513          	addi	a0,s1,16
    80001f6c:	1fe010ef          	jal	8000316a <acquiresleep>
      return b;
    80001f70:	a889                	j	80001fc2 <bread+0xb4>
  for(b = bcache.head.prev; b != &bcache.head; b = b->prev){
    80001f72:	00024497          	auipc	s1,0x24
    80001f76:	6064b483          	ld	s1,1542(s1) # 80026578 <bcache+0x10500>
    80001f7a:	00024797          	auipc	a5,0x24
    80001f7e:	5b678793          	addi	a5,a5,1462 # 80026530 <bcache+0x104b8>
    80001f82:	00f48863          	beq	s1,a5,80001f92 <bread+0x84>
    80001f86:	873e                	mv	a4,a5
    if(b->refcnt == 0) {
    80001f88:	40bc                	lw	a5,64(s1)
    80001f8a:	cb91                	beqz	a5,80001f9e <bread+0x90>
  for(b = bcache.head.prev; b != &bcache.head; b = b->prev){
    80001f8c:	64a4                	ld	s1,72(s1)
    80001f8e:	fee49de3          	bne	s1,a4,80001f88 <bread+0x7a>
  panic("bget: no buffers");
    80001f92:	00005517          	auipc	a0,0x5
    80001f96:	44e50513          	addi	a0,a0,1102 # 800073e0 <etext+0x3e0>
    80001f9a:	468030ef          	jal	80005402 <panic>
      b->dev = dev;
    80001f9e:	0124a423          	sw	s2,8(s1)
      b->blockno = blockno;
    80001fa2:	0134a623          	sw	s3,12(s1)
      b->valid = 0;
    80001fa6:	0004a023          	sw	zero,0(s1)
      b->refcnt = 1;
    80001faa:	4785                	li	a5,1
    80001fac:	c0bc                	sw	a5,64(s1)
      release(&bcache.lock);
    80001fae:	00014517          	auipc	a0,0x14
    80001fb2:	0ca50513          	addi	a0,a0,202 # 80016078 <bcache>
    80001fb6:	013030ef          	jal	800057c8 <release>
      acquiresleep(&b->lock);
    80001fba:	01048513          	addi	a0,s1,16
    80001fbe:	1ac010ef          	jal	8000316a <acquiresleep>
  struct buf *b;

  b = bget(dev, blockno);
  if(!b->valid) {
    80001fc2:	409c                	lw	a5,0(s1)
    80001fc4:	cb89                	beqz	a5,80001fd6 <bread+0xc8>
    virtio_disk_rw(b, 0);
    b->valid = 1;
  }
  return b;
}
    80001fc6:	8526                	mv	a0,s1
    80001fc8:	70a2                	ld	ra,40(sp)
    80001fca:	7402                	ld	s0,32(sp)
    80001fcc:	64e2                	ld	s1,24(sp)
    80001fce:	6942                	ld	s2,16(sp)
    80001fd0:	69a2                	ld	s3,8(sp)
    80001fd2:	6145                	addi	sp,sp,48
    80001fd4:	8082                	ret
    virtio_disk_rw(b, 0);
    80001fd6:	4581                	li	a1,0
    80001fd8:	8526                	mv	a0,s1
    80001fda:	1f7020ef          	jal	800049d0 <virtio_disk_rw>
    b->valid = 1;
    80001fde:	4785                	li	a5,1
    80001fe0:	c09c                	sw	a5,0(s1)
  return b;
    80001fe2:	b7d5                	j	80001fc6 <bread+0xb8>

0000000080001fe4 <bwrite>:

// Write b's contents to disk.  Must be locked.
void
bwrite(struct buf *b)
{
    80001fe4:	1101                	addi	sp,sp,-32
    80001fe6:	ec06                	sd	ra,24(sp)
    80001fe8:	e822                	sd	s0,16(sp)
    80001fea:	e426                	sd	s1,8(sp)
    80001fec:	1000                	addi	s0,sp,32
    80001fee:	84aa                	mv	s1,a0
  if(!holdingsleep(&b->lock))
    80001ff0:	0541                	addi	a0,a0,16
    80001ff2:	1f6010ef          	jal	800031e8 <holdingsleep>
    80001ff6:	c911                	beqz	a0,8000200a <bwrite+0x26>
    panic("bwrite");
  virtio_disk_rw(b, 1);
    80001ff8:	4585                	li	a1,1
    80001ffa:	8526                	mv	a0,s1
    80001ffc:	1d5020ef          	jal	800049d0 <virtio_disk_rw>
}
    80002000:	60e2                	ld	ra,24(sp)
    80002002:	6442                	ld	s0,16(sp)
    80002004:	64a2                	ld	s1,8(sp)
    80002006:	6105                	addi	sp,sp,32
    80002008:	8082                	ret
    panic("bwrite");
    8000200a:	00005517          	auipc	a0,0x5
    8000200e:	3ee50513          	addi	a0,a0,1006 # 800073f8 <etext+0x3f8>
    80002012:	3f0030ef          	jal	80005402 <panic>

0000000080002016 <brelse>:

// Release a locked buffer.
// Move to the head of the most-recently-used list.
void
brelse(struct buf *b)
{
    80002016:	1101                	addi	sp,sp,-32
    80002018:	ec06                	sd	ra,24(sp)
    8000201a:	e822                	sd	s0,16(sp)
    8000201c:	e426                	sd	s1,8(sp)
    8000201e:	e04a                	sd	s2,0(sp)
    80002020:	1000                	addi	s0,sp,32
    80002022:	84aa                	mv	s1,a0
  if(!holdingsleep(&b->lock))
    80002024:	01050913          	addi	s2,a0,16
    80002028:	854a                	mv	a0,s2
    8000202a:	1be010ef          	jal	800031e8 <holdingsleep>
    8000202e:	c135                	beqz	a0,80002092 <brelse+0x7c>
    panic("brelse");

  releasesleep(&b->lock);
    80002030:	854a                	mv	a0,s2
    80002032:	17e010ef          	jal	800031b0 <releasesleep>

  acquire(&bcache.lock);
    80002036:	00014517          	auipc	a0,0x14
    8000203a:	04250513          	addi	a0,a0,66 # 80016078 <bcache>
    8000203e:	6f2030ef          	jal	80005730 <acquire>
  b->refcnt--;
    80002042:	40bc                	lw	a5,64(s1)
    80002044:	37fd                	addiw	a5,a5,-1
    80002046:	0007871b          	sext.w	a4,a5
    8000204a:	c0bc                	sw	a5,64(s1)
  if (b->refcnt == 0) {
    8000204c:	e71d                	bnez	a4,8000207a <brelse+0x64>
    // no one is waiting for it.
    b->next->prev = b->prev;
    8000204e:	68b8                	ld	a4,80(s1)
    80002050:	64bc                	ld	a5,72(s1)
    80002052:	e73c                	sd	a5,72(a4)
    b->prev->next = b->next;
    80002054:	68b8                	ld	a4,80(s1)
    80002056:	ebb8                	sd	a4,80(a5)
    b->next = bcache.head.next;
    80002058:	00024797          	auipc	a5,0x24
    8000205c:	02078793          	addi	a5,a5,32 # 80026078 <bcache+0x10000>
    80002060:	5087b703          	ld	a4,1288(a5)
    80002064:	e8b8                	sd	a4,80(s1)
    b->prev = &bcache.head;
    80002066:	00024717          	auipc	a4,0x24
    8000206a:	4ca70713          	addi	a4,a4,1226 # 80026530 <bcache+0x104b8>
    8000206e:	e4b8                	sd	a4,72(s1)
    bcache.head.next->prev = b;
    80002070:	5087b703          	ld	a4,1288(a5)
    80002074:	e724                	sd	s1,72(a4)
    bcache.head.next = b;
    80002076:	5097b423          	sd	s1,1288(a5)
  }
  
  release(&bcache.lock);
    8000207a:	00014517          	auipc	a0,0x14
    8000207e:	ffe50513          	addi	a0,a0,-2 # 80016078 <bcache>
    80002082:	746030ef          	jal	800057c8 <release>
}
    80002086:	60e2                	ld	ra,24(sp)
    80002088:	6442                	ld	s0,16(sp)
    8000208a:	64a2                	ld	s1,8(sp)
    8000208c:	6902                	ld	s2,0(sp)
    8000208e:	6105                	addi	sp,sp,32
    80002090:	8082                	ret
    panic("brelse");
    80002092:	00005517          	auipc	a0,0x5
    80002096:	36e50513          	addi	a0,a0,878 # 80007400 <etext+0x400>
    8000209a:	368030ef          	jal	80005402 <panic>

000000008000209e <bpin>:

void
bpin(struct buf *b) {
    8000209e:	1101                	addi	sp,sp,-32
    800020a0:	ec06                	sd	ra,24(sp)
    800020a2:	e822                	sd	s0,16(sp)
    800020a4:	e426                	sd	s1,8(sp)
    800020a6:	1000                	addi	s0,sp,32
    800020a8:	84aa                	mv	s1,a0
  acquire(&bcache.lock);
    800020aa:	00014517          	auipc	a0,0x14
    800020ae:	fce50513          	addi	a0,a0,-50 # 80016078 <bcache>
    800020b2:	67e030ef          	jal	80005730 <acquire>
  b->refcnt++;
    800020b6:	40bc                	lw	a5,64(s1)
    800020b8:	2785                	addiw	a5,a5,1
    800020ba:	c0bc                	sw	a5,64(s1)
  release(&bcache.lock);
    800020bc:	00014517          	auipc	a0,0x14
    800020c0:	fbc50513          	addi	a0,a0,-68 # 80016078 <bcache>
    800020c4:	704030ef          	jal	800057c8 <release>
}
    800020c8:	60e2                	ld	ra,24(sp)
    800020ca:	6442                	ld	s0,16(sp)
    800020cc:	64a2                	ld	s1,8(sp)
    800020ce:	6105                	addi	sp,sp,32
    800020d0:	8082                	ret

00000000800020d2 <bunpin>:

void
bunpin(struct buf *b) {
    800020d2:	1101                	addi	sp,sp,-32
    800020d4:	ec06                	sd	ra,24(sp)
    800020d6:	e822                	sd	s0,16(sp)
    800020d8:	e426                	sd	s1,8(sp)
    800020da:	1000                	addi	s0,sp,32
    800020dc:	84aa                	mv	s1,a0
  acquire(&bcache.lock);
    800020de:	00014517          	auipc	a0,0x14
    800020e2:	f9a50513          	addi	a0,a0,-102 # 80016078 <bcache>
    800020e6:	64a030ef          	jal	80005730 <acquire>
  b->refcnt--;
    800020ea:	40bc                	lw	a5,64(s1)
    800020ec:	37fd                	addiw	a5,a5,-1
    800020ee:	c0bc                	sw	a5,64(s1)
  release(&bcache.lock);
    800020f0:	00014517          	auipc	a0,0x14
    800020f4:	f8850513          	addi	a0,a0,-120 # 80016078 <bcache>
    800020f8:	6d0030ef          	jal	800057c8 <release>
}
    800020fc:	60e2                	ld	ra,24(sp)
    800020fe:	6442                	ld	s0,16(sp)
    80002100:	64a2                	ld	s1,8(sp)
    80002102:	6105                	addi	sp,sp,32
    80002104:	8082                	ret

0000000080002106 <bfree>:
}

// Free a disk block.
static void
bfree(int dev, uint b)
{
    80002106:	1101                	addi	sp,sp,-32
    80002108:	ec06                	sd	ra,24(sp)
    8000210a:	e822                	sd	s0,16(sp)
    8000210c:	e426                	sd	s1,8(sp)
    8000210e:	e04a                	sd	s2,0(sp)
    80002110:	1000                	addi	s0,sp,32
    80002112:	84ae                	mv	s1,a1
  struct buf *bp;
  int bi, m;

  bp = bread(dev, BBLOCK(b, sb));
    80002114:	00d5d59b          	srliw	a1,a1,0xd
    80002118:	00025797          	auipc	a5,0x25
    8000211c:	88c7a783          	lw	a5,-1908(a5) # 800269a4 <sb+0x1c>
    80002120:	9dbd                	addw	a1,a1,a5
    80002122:	dedff0ef          	jal	80001f0e <bread>
  bi = b % BPB;
  m = 1 << (bi % 8);
    80002126:	0074f713          	andi	a4,s1,7
    8000212a:	4785                	li	a5,1
    8000212c:	00e797bb          	sllw	a5,a5,a4
  if((bp->data[bi/8] & m) == 0)
    80002130:	14ce                	slli	s1,s1,0x33
    80002132:	90d9                	srli	s1,s1,0x36
    80002134:	00950733          	add	a4,a0,s1
    80002138:	05874703          	lbu	a4,88(a4)
    8000213c:	00e7f6b3          	and	a3,a5,a4
    80002140:	c29d                	beqz	a3,80002166 <bfree+0x60>
    80002142:	892a                	mv	s2,a0
    panic("freeing free block");
  bp->data[bi/8] &= ~m;
    80002144:	94aa                	add	s1,s1,a0
    80002146:	fff7c793          	not	a5,a5
    8000214a:	8f7d                	and	a4,a4,a5
    8000214c:	04e48c23          	sb	a4,88(s1)
  log_write(bp);
    80002150:	713000ef          	jal	80003062 <log_write>
  brelse(bp);
    80002154:	854a                	mv	a0,s2
    80002156:	ec1ff0ef          	jal	80002016 <brelse>
}
    8000215a:	60e2                	ld	ra,24(sp)
    8000215c:	6442                	ld	s0,16(sp)
    8000215e:	64a2                	ld	s1,8(sp)
    80002160:	6902                	ld	s2,0(sp)
    80002162:	6105                	addi	sp,sp,32
    80002164:	8082                	ret
    panic("freeing free block");
    80002166:	00005517          	auipc	a0,0x5
    8000216a:	2a250513          	addi	a0,a0,674 # 80007408 <etext+0x408>
    8000216e:	294030ef          	jal	80005402 <panic>

0000000080002172 <balloc>:
{
    80002172:	711d                	addi	sp,sp,-96
    80002174:	ec86                	sd	ra,88(sp)
    80002176:	e8a2                	sd	s0,80(sp)
    80002178:	e4a6                	sd	s1,72(sp)
    8000217a:	1080                	addi	s0,sp,96
  for(b = 0; b < sb.size; b += BPB){
    8000217c:	00025797          	auipc	a5,0x25
    80002180:	8107a783          	lw	a5,-2032(a5) # 8002698c <sb+0x4>
    80002184:	0e078f63          	beqz	a5,80002282 <balloc+0x110>
    80002188:	e0ca                	sd	s2,64(sp)
    8000218a:	fc4e                	sd	s3,56(sp)
    8000218c:	f852                	sd	s4,48(sp)
    8000218e:	f456                	sd	s5,40(sp)
    80002190:	f05a                	sd	s6,32(sp)
    80002192:	ec5e                	sd	s7,24(sp)
    80002194:	e862                	sd	s8,16(sp)
    80002196:	e466                	sd	s9,8(sp)
    80002198:	8baa                	mv	s7,a0
    8000219a:	4a81                	li	s5,0
    bp = bread(dev, BBLOCK(b, sb));
    8000219c:	00024b17          	auipc	s6,0x24
    800021a0:	7ecb0b13          	addi	s6,s6,2028 # 80026988 <sb>
    for(bi = 0; bi < BPB && b + bi < sb.size; bi++){
    800021a4:	4c01                	li	s8,0
      m = 1 << (bi % 8);
    800021a6:	4985                	li	s3,1
    for(bi = 0; bi < BPB && b + bi < sb.size; bi++){
    800021a8:	6a09                	lui	s4,0x2
  for(b = 0; b < sb.size; b += BPB){
    800021aa:	6c89                	lui	s9,0x2
    800021ac:	a0b5                	j	80002218 <balloc+0xa6>
        bp->data[bi/8] |= m;  // Mark block in use.
    800021ae:	97ca                	add	a5,a5,s2
    800021b0:	8e55                	or	a2,a2,a3
    800021b2:	04c78c23          	sb	a2,88(a5)
        log_write(bp);
    800021b6:	854a                	mv	a0,s2
    800021b8:	6ab000ef          	jal	80003062 <log_write>
        brelse(bp);
    800021bc:	854a                	mv	a0,s2
    800021be:	e59ff0ef          	jal	80002016 <brelse>
  bp = bread(dev, bno);
    800021c2:	85a6                	mv	a1,s1
    800021c4:	855e                	mv	a0,s7
    800021c6:	d49ff0ef          	jal	80001f0e <bread>
    800021ca:	892a                	mv	s2,a0
  memset(bp->data, 0, BSIZE);
    800021cc:	40000613          	li	a2,1024
    800021d0:	4581                	li	a1,0
    800021d2:	05850513          	addi	a0,a0,88
    800021d6:	f79fd0ef          	jal	8000014e <memset>
  log_write(bp);
    800021da:	854a                	mv	a0,s2
    800021dc:	687000ef          	jal	80003062 <log_write>
  brelse(bp);
    800021e0:	854a                	mv	a0,s2
    800021e2:	e35ff0ef          	jal	80002016 <brelse>
}
    800021e6:	6906                	ld	s2,64(sp)
    800021e8:	79e2                	ld	s3,56(sp)
    800021ea:	7a42                	ld	s4,48(sp)
    800021ec:	7aa2                	ld	s5,40(sp)
    800021ee:	7b02                	ld	s6,32(sp)
    800021f0:	6be2                	ld	s7,24(sp)
    800021f2:	6c42                	ld	s8,16(sp)
    800021f4:	6ca2                	ld	s9,8(sp)
}
    800021f6:	8526                	mv	a0,s1
    800021f8:	60e6                	ld	ra,88(sp)
    800021fa:	6446                	ld	s0,80(sp)
    800021fc:	64a6                	ld	s1,72(sp)
    800021fe:	6125                	addi	sp,sp,96
    80002200:	8082                	ret
    brelse(bp);
    80002202:	854a                	mv	a0,s2
    80002204:	e13ff0ef          	jal	80002016 <brelse>
  for(b = 0; b < sb.size; b += BPB){
    80002208:	015c87bb          	addw	a5,s9,s5
    8000220c:	00078a9b          	sext.w	s5,a5
    80002210:	004b2703          	lw	a4,4(s6)
    80002214:	04eaff63          	bgeu	s5,a4,80002272 <balloc+0x100>
    bp = bread(dev, BBLOCK(b, sb));
    80002218:	41fad79b          	sraiw	a5,s5,0x1f
    8000221c:	0137d79b          	srliw	a5,a5,0x13
    80002220:	015787bb          	addw	a5,a5,s5
    80002224:	40d7d79b          	sraiw	a5,a5,0xd
    80002228:	01cb2583          	lw	a1,28(s6)
    8000222c:	9dbd                	addw	a1,a1,a5
    8000222e:	855e                	mv	a0,s7
    80002230:	cdfff0ef          	jal	80001f0e <bread>
    80002234:	892a                	mv	s2,a0
    for(bi = 0; bi < BPB && b + bi < sb.size; bi++){
    80002236:	004b2503          	lw	a0,4(s6)
    8000223a:	000a849b          	sext.w	s1,s5
    8000223e:	8762                	mv	a4,s8
    80002240:	fca4f1e3          	bgeu	s1,a0,80002202 <balloc+0x90>
      m = 1 << (bi % 8);
    80002244:	00777693          	andi	a3,a4,7
    80002248:	00d996bb          	sllw	a3,s3,a3
      if((bp->data[bi/8] & m) == 0){  // Is block free?
    8000224c:	41f7579b          	sraiw	a5,a4,0x1f
    80002250:	01d7d79b          	srliw	a5,a5,0x1d
    80002254:	9fb9                	addw	a5,a5,a4
    80002256:	4037d79b          	sraiw	a5,a5,0x3
    8000225a:	00f90633          	add	a2,s2,a5
    8000225e:	05864603          	lbu	a2,88(a2)
    80002262:	00c6f5b3          	and	a1,a3,a2
    80002266:	d5a1                	beqz	a1,800021ae <balloc+0x3c>
    for(bi = 0; bi < BPB && b + bi < sb.size; bi++){
    80002268:	2705                	addiw	a4,a4,1
    8000226a:	2485                	addiw	s1,s1,1
    8000226c:	fd471ae3          	bne	a4,s4,80002240 <balloc+0xce>
    80002270:	bf49                	j	80002202 <balloc+0x90>
    80002272:	6906                	ld	s2,64(sp)
    80002274:	79e2                	ld	s3,56(sp)
    80002276:	7a42                	ld	s4,48(sp)
    80002278:	7aa2                	ld	s5,40(sp)
    8000227a:	7b02                	ld	s6,32(sp)
    8000227c:	6be2                	ld	s7,24(sp)
    8000227e:	6c42                	ld	s8,16(sp)
    80002280:	6ca2                	ld	s9,8(sp)
  printf("balloc: out of blocks\n");
    80002282:	00005517          	auipc	a0,0x5
    80002286:	19e50513          	addi	a0,a0,414 # 80007420 <etext+0x420>
    8000228a:	6a7020ef          	jal	80005130 <printf>
  return 0;
    8000228e:	4481                	li	s1,0
    80002290:	b79d                	j	800021f6 <balloc+0x84>

0000000080002292 <bmap>:
// Return the disk block address of the nth block in inode ip.
// If there is no such block, bmap allocates one.
// returns 0 if out of disk space.
static uint
bmap(struct inode *ip, uint bn)
{
    80002292:	7179                	addi	sp,sp,-48
    80002294:	f406                	sd	ra,40(sp)
    80002296:	f022                	sd	s0,32(sp)
    80002298:	ec26                	sd	s1,24(sp)
    8000229a:	e84a                	sd	s2,16(sp)
    8000229c:	e44e                	sd	s3,8(sp)
    8000229e:	1800                	addi	s0,sp,48
    800022a0:	89aa                	mv	s3,a0
  uint addr, *a;
  struct buf *bp;

  if(bn < NDIRECT){
    800022a2:	47ad                	li	a5,11
    800022a4:	02b7e663          	bltu	a5,a1,800022d0 <bmap+0x3e>
    if((addr = ip->addrs[bn]) == 0){
    800022a8:	02059793          	slli	a5,a1,0x20
    800022ac:	01e7d593          	srli	a1,a5,0x1e
    800022b0:	00b504b3          	add	s1,a0,a1
    800022b4:	0504a903          	lw	s2,80(s1)
    800022b8:	06091a63          	bnez	s2,8000232c <bmap+0x9a>
      addr = balloc(ip->dev);
    800022bc:	4108                	lw	a0,0(a0)
    800022be:	eb5ff0ef          	jal	80002172 <balloc>
    800022c2:	0005091b          	sext.w	s2,a0
      if(addr == 0)
    800022c6:	06090363          	beqz	s2,8000232c <bmap+0x9a>
        return 0;
      ip->addrs[bn] = addr;
    800022ca:	0524a823          	sw	s2,80(s1)
    800022ce:	a8b9                	j	8000232c <bmap+0x9a>
    }
    return addr;
  }
  bn -= NDIRECT;
    800022d0:	ff45849b          	addiw	s1,a1,-12
    800022d4:	0004871b          	sext.w	a4,s1

  if(bn < NINDIRECT){
    800022d8:	0ff00793          	li	a5,255
    800022dc:	06e7ee63          	bltu	a5,a4,80002358 <bmap+0xc6>
    // Load indirect block, allocating if necessary.
    if((addr = ip->addrs[NDIRECT]) == 0){
    800022e0:	08052903          	lw	s2,128(a0)
    800022e4:	00091d63          	bnez	s2,800022fe <bmap+0x6c>
      addr = balloc(ip->dev);
    800022e8:	4108                	lw	a0,0(a0)
    800022ea:	e89ff0ef          	jal	80002172 <balloc>
    800022ee:	0005091b          	sext.w	s2,a0
      if(addr == 0)
    800022f2:	02090d63          	beqz	s2,8000232c <bmap+0x9a>
    800022f6:	e052                	sd	s4,0(sp)
        return 0;
      ip->addrs[NDIRECT] = addr;
    800022f8:	0929a023          	sw	s2,128(s3)
    800022fc:	a011                	j	80002300 <bmap+0x6e>
    800022fe:	e052                	sd	s4,0(sp)
    }
    bp = bread(ip->dev, addr);
    80002300:	85ca                	mv	a1,s2
    80002302:	0009a503          	lw	a0,0(s3)
    80002306:	c09ff0ef          	jal	80001f0e <bread>
    8000230a:	8a2a                	mv	s4,a0
    a = (uint*)bp->data;
    8000230c:	05850793          	addi	a5,a0,88
    if((addr = a[bn]) == 0){
    80002310:	02049713          	slli	a4,s1,0x20
    80002314:	01e75593          	srli	a1,a4,0x1e
    80002318:	00b784b3          	add	s1,a5,a1
    8000231c:	0004a903          	lw	s2,0(s1)
    80002320:	00090e63          	beqz	s2,8000233c <bmap+0xaa>
      if(addr){
        a[bn] = addr;
        log_write(bp);
      }
    }
    brelse(bp);
    80002324:	8552                	mv	a0,s4
    80002326:	cf1ff0ef          	jal	80002016 <brelse>
    return addr;
    8000232a:	6a02                	ld	s4,0(sp)
  }

  panic("bmap: out of range");
}
    8000232c:	854a                	mv	a0,s2
    8000232e:	70a2                	ld	ra,40(sp)
    80002330:	7402                	ld	s0,32(sp)
    80002332:	64e2                	ld	s1,24(sp)
    80002334:	6942                	ld	s2,16(sp)
    80002336:	69a2                	ld	s3,8(sp)
    80002338:	6145                	addi	sp,sp,48
    8000233a:	8082                	ret
      addr = balloc(ip->dev);
    8000233c:	0009a503          	lw	a0,0(s3)
    80002340:	e33ff0ef          	jal	80002172 <balloc>
    80002344:	0005091b          	sext.w	s2,a0
      if(addr){
    80002348:	fc090ee3          	beqz	s2,80002324 <bmap+0x92>
        a[bn] = addr;
    8000234c:	0124a023          	sw	s2,0(s1)
        log_write(bp);
    80002350:	8552                	mv	a0,s4
    80002352:	511000ef          	jal	80003062 <log_write>
    80002356:	b7f9                	j	80002324 <bmap+0x92>
    80002358:	e052                	sd	s4,0(sp)
  panic("bmap: out of range");
    8000235a:	00005517          	auipc	a0,0x5
    8000235e:	0de50513          	addi	a0,a0,222 # 80007438 <etext+0x438>
    80002362:	0a0030ef          	jal	80005402 <panic>

0000000080002366 <iget>:
{
    80002366:	7179                	addi	sp,sp,-48
    80002368:	f406                	sd	ra,40(sp)
    8000236a:	f022                	sd	s0,32(sp)
    8000236c:	ec26                	sd	s1,24(sp)
    8000236e:	e84a                	sd	s2,16(sp)
    80002370:	e44e                	sd	s3,8(sp)
    80002372:	e052                	sd	s4,0(sp)
    80002374:	1800                	addi	s0,sp,48
    80002376:	89aa                	mv	s3,a0
    80002378:	8a2e                	mv	s4,a1
  acquire(&itable.lock);
    8000237a:	00024517          	auipc	a0,0x24
    8000237e:	62e50513          	addi	a0,a0,1582 # 800269a8 <itable>
    80002382:	3ae030ef          	jal	80005730 <acquire>
  empty = 0;
    80002386:	4901                	li	s2,0
  for(ip = &itable.inode[0]; ip < &itable.inode[NINODE]; ip++){
    80002388:	00024497          	auipc	s1,0x24
    8000238c:	63848493          	addi	s1,s1,1592 # 800269c0 <itable+0x18>
    80002390:	00026697          	auipc	a3,0x26
    80002394:	0c068693          	addi	a3,a3,192 # 80028450 <log>
    80002398:	a039                	j	800023a6 <iget+0x40>
    if(empty == 0 && ip->ref == 0)    // Remember empty slot.
    8000239a:	02090963          	beqz	s2,800023cc <iget+0x66>
  for(ip = &itable.inode[0]; ip < &itable.inode[NINODE]; ip++){
    8000239e:	08848493          	addi	s1,s1,136
    800023a2:	02d48863          	beq	s1,a3,800023d2 <iget+0x6c>
    if(ip->ref > 0 && ip->dev == dev && ip->inum == inum){
    800023a6:	449c                	lw	a5,8(s1)
    800023a8:	fef059e3          	blez	a5,8000239a <iget+0x34>
    800023ac:	4098                	lw	a4,0(s1)
    800023ae:	ff3716e3          	bne	a4,s3,8000239a <iget+0x34>
    800023b2:	40d8                	lw	a4,4(s1)
    800023b4:	ff4713e3          	bne	a4,s4,8000239a <iget+0x34>
      ip->ref++;
    800023b8:	2785                	addiw	a5,a5,1
    800023ba:	c49c                	sw	a5,8(s1)
      release(&itable.lock);
    800023bc:	00024517          	auipc	a0,0x24
    800023c0:	5ec50513          	addi	a0,a0,1516 # 800269a8 <itable>
    800023c4:	404030ef          	jal	800057c8 <release>
      return ip;
    800023c8:	8926                	mv	s2,s1
    800023ca:	a02d                	j	800023f4 <iget+0x8e>
    if(empty == 0 && ip->ref == 0)    // Remember empty slot.
    800023cc:	fbe9                	bnez	a5,8000239e <iget+0x38>
      empty = ip;
    800023ce:	8926                	mv	s2,s1
    800023d0:	b7f9                	j	8000239e <iget+0x38>
  if(empty == 0)
    800023d2:	02090a63          	beqz	s2,80002406 <iget+0xa0>
  ip->dev = dev;
    800023d6:	01392023          	sw	s3,0(s2)
  ip->inum = inum;
    800023da:	01492223          	sw	s4,4(s2)
  ip->ref = 1;
    800023de:	4785                	li	a5,1
    800023e0:	00f92423          	sw	a5,8(s2)
  ip->valid = 0;
    800023e4:	04092023          	sw	zero,64(s2)
  release(&itable.lock);
    800023e8:	00024517          	auipc	a0,0x24
    800023ec:	5c050513          	addi	a0,a0,1472 # 800269a8 <itable>
    800023f0:	3d8030ef          	jal	800057c8 <release>
}
    800023f4:	854a                	mv	a0,s2
    800023f6:	70a2                	ld	ra,40(sp)
    800023f8:	7402                	ld	s0,32(sp)
    800023fa:	64e2                	ld	s1,24(sp)
    800023fc:	6942                	ld	s2,16(sp)
    800023fe:	69a2                	ld	s3,8(sp)
    80002400:	6a02                	ld	s4,0(sp)
    80002402:	6145                	addi	sp,sp,48
    80002404:	8082                	ret
    panic("iget: no inodes");
    80002406:	00005517          	auipc	a0,0x5
    8000240a:	04a50513          	addi	a0,a0,74 # 80007450 <etext+0x450>
    8000240e:	7f5020ef          	jal	80005402 <panic>

0000000080002412 <fsinit>:
fsinit(int dev) {
    80002412:	7179                	addi	sp,sp,-48
    80002414:	f406                	sd	ra,40(sp)
    80002416:	f022                	sd	s0,32(sp)
    80002418:	ec26                	sd	s1,24(sp)
    8000241a:	e84a                	sd	s2,16(sp)
    8000241c:	e44e                	sd	s3,8(sp)
    8000241e:	1800                	addi	s0,sp,48
    80002420:	892a                	mv	s2,a0
  bp = bread(dev, 1);
    80002422:	4585                	li	a1,1
    80002424:	aebff0ef          	jal	80001f0e <bread>
    80002428:	84aa                	mv	s1,a0
  memmove(sb, bp->data, sizeof(*sb));
    8000242a:	00024997          	auipc	s3,0x24
    8000242e:	55e98993          	addi	s3,s3,1374 # 80026988 <sb>
    80002432:	02000613          	li	a2,32
    80002436:	05850593          	addi	a1,a0,88
    8000243a:	854e                	mv	a0,s3
    8000243c:	d6ffd0ef          	jal	800001aa <memmove>
  brelse(bp);
    80002440:	8526                	mv	a0,s1
    80002442:	bd5ff0ef          	jal	80002016 <brelse>
  if(sb.magic != FSMAGIC)
    80002446:	0009a703          	lw	a4,0(s3)
    8000244a:	102037b7          	lui	a5,0x10203
    8000244e:	04078793          	addi	a5,a5,64 # 10203040 <_entry-0x6fdfcfc0>
    80002452:	02f71063          	bne	a4,a5,80002472 <fsinit+0x60>
  initlog(dev, &sb);
    80002456:	00024597          	auipc	a1,0x24
    8000245a:	53258593          	addi	a1,a1,1330 # 80026988 <sb>
    8000245e:	854a                	mv	a0,s2
    80002460:	1f9000ef          	jal	80002e58 <initlog>
}
    80002464:	70a2                	ld	ra,40(sp)
    80002466:	7402                	ld	s0,32(sp)
    80002468:	64e2                	ld	s1,24(sp)
    8000246a:	6942                	ld	s2,16(sp)
    8000246c:	69a2                	ld	s3,8(sp)
    8000246e:	6145                	addi	sp,sp,48
    80002470:	8082                	ret
    panic("invalid file system");
    80002472:	00005517          	auipc	a0,0x5
    80002476:	fee50513          	addi	a0,a0,-18 # 80007460 <etext+0x460>
    8000247a:	789020ef          	jal	80005402 <panic>

000000008000247e <iinit>:
{
    8000247e:	7179                	addi	sp,sp,-48
    80002480:	f406                	sd	ra,40(sp)
    80002482:	f022                	sd	s0,32(sp)
    80002484:	ec26                	sd	s1,24(sp)
    80002486:	e84a                	sd	s2,16(sp)
    80002488:	e44e                	sd	s3,8(sp)
    8000248a:	1800                	addi	s0,sp,48
  initlock(&itable.lock, "itable");
    8000248c:	00005597          	auipc	a1,0x5
    80002490:	fec58593          	addi	a1,a1,-20 # 80007478 <etext+0x478>
    80002494:	00024517          	auipc	a0,0x24
    80002498:	51450513          	addi	a0,a0,1300 # 800269a8 <itable>
    8000249c:	214030ef          	jal	800056b0 <initlock>
  for(i = 0; i < NINODE; i++) {
    800024a0:	00024497          	auipc	s1,0x24
    800024a4:	53048493          	addi	s1,s1,1328 # 800269d0 <itable+0x28>
    800024a8:	00026997          	auipc	s3,0x26
    800024ac:	fb898993          	addi	s3,s3,-72 # 80028460 <log+0x10>
    initsleeplock(&itable.inode[i].lock, "inode");
    800024b0:	00005917          	auipc	s2,0x5
    800024b4:	fd090913          	addi	s2,s2,-48 # 80007480 <etext+0x480>
    800024b8:	85ca                	mv	a1,s2
    800024ba:	8526                	mv	a0,s1
    800024bc:	479000ef          	jal	80003134 <initsleeplock>
  for(i = 0; i < NINODE; i++) {
    800024c0:	08848493          	addi	s1,s1,136
    800024c4:	ff349ae3          	bne	s1,s3,800024b8 <iinit+0x3a>
}
    800024c8:	70a2                	ld	ra,40(sp)
    800024ca:	7402                	ld	s0,32(sp)
    800024cc:	64e2                	ld	s1,24(sp)
    800024ce:	6942                	ld	s2,16(sp)
    800024d0:	69a2                	ld	s3,8(sp)
    800024d2:	6145                	addi	sp,sp,48
    800024d4:	8082                	ret

00000000800024d6 <ialloc>:
{
    800024d6:	7139                	addi	sp,sp,-64
    800024d8:	fc06                	sd	ra,56(sp)
    800024da:	f822                	sd	s0,48(sp)
    800024dc:	0080                	addi	s0,sp,64
  for(inum = 1; inum < sb.ninodes; inum++){
    800024de:	00024717          	auipc	a4,0x24
    800024e2:	4b672703          	lw	a4,1206(a4) # 80026994 <sb+0xc>
    800024e6:	4785                	li	a5,1
    800024e8:	06e7f063          	bgeu	a5,a4,80002548 <ialloc+0x72>
    800024ec:	f426                	sd	s1,40(sp)
    800024ee:	f04a                	sd	s2,32(sp)
    800024f0:	ec4e                	sd	s3,24(sp)
    800024f2:	e852                	sd	s4,16(sp)
    800024f4:	e456                	sd	s5,8(sp)
    800024f6:	e05a                	sd	s6,0(sp)
    800024f8:	8aaa                	mv	s5,a0
    800024fa:	8b2e                	mv	s6,a1
    800024fc:	4905                	li	s2,1
    bp = bread(dev, IBLOCK(inum, sb));
    800024fe:	00024a17          	auipc	s4,0x24
    80002502:	48aa0a13          	addi	s4,s4,1162 # 80026988 <sb>
    80002506:	00495593          	srli	a1,s2,0x4
    8000250a:	018a2783          	lw	a5,24(s4)
    8000250e:	9dbd                	addw	a1,a1,a5
    80002510:	8556                	mv	a0,s5
    80002512:	9fdff0ef          	jal	80001f0e <bread>
    80002516:	84aa                	mv	s1,a0
    dip = (struct dinode*)bp->data + inum%IPB;
    80002518:	05850993          	addi	s3,a0,88
    8000251c:	00f97793          	andi	a5,s2,15
    80002520:	079a                	slli	a5,a5,0x6
    80002522:	99be                	add	s3,s3,a5
    if(dip->type == 0){  // a free inode
    80002524:	00099783          	lh	a5,0(s3)
    80002528:	cb9d                	beqz	a5,8000255e <ialloc+0x88>
    brelse(bp);
    8000252a:	aedff0ef          	jal	80002016 <brelse>
  for(inum = 1; inum < sb.ninodes; inum++){
    8000252e:	0905                	addi	s2,s2,1
    80002530:	00ca2703          	lw	a4,12(s4)
    80002534:	0009079b          	sext.w	a5,s2
    80002538:	fce7e7e3          	bltu	a5,a4,80002506 <ialloc+0x30>
    8000253c:	74a2                	ld	s1,40(sp)
    8000253e:	7902                	ld	s2,32(sp)
    80002540:	69e2                	ld	s3,24(sp)
    80002542:	6a42                	ld	s4,16(sp)
    80002544:	6aa2                	ld	s5,8(sp)
    80002546:	6b02                	ld	s6,0(sp)
  printf("ialloc: no inodes\n");
    80002548:	00005517          	auipc	a0,0x5
    8000254c:	f4050513          	addi	a0,a0,-192 # 80007488 <etext+0x488>
    80002550:	3e1020ef          	jal	80005130 <printf>
  return 0;
    80002554:	4501                	li	a0,0
}
    80002556:	70e2                	ld	ra,56(sp)
    80002558:	7442                	ld	s0,48(sp)
    8000255a:	6121                	addi	sp,sp,64
    8000255c:	8082                	ret
      memset(dip, 0, sizeof(*dip));
    8000255e:	04000613          	li	a2,64
    80002562:	4581                	li	a1,0
    80002564:	854e                	mv	a0,s3
    80002566:	be9fd0ef          	jal	8000014e <memset>
      dip->type = type;
    8000256a:	01699023          	sh	s6,0(s3)
      log_write(bp);   // mark it allocated on the disk
    8000256e:	8526                	mv	a0,s1
    80002570:	2f3000ef          	jal	80003062 <log_write>
      brelse(bp);
    80002574:	8526                	mv	a0,s1
    80002576:	aa1ff0ef          	jal	80002016 <brelse>
      return iget(dev, inum);
    8000257a:	0009059b          	sext.w	a1,s2
    8000257e:	8556                	mv	a0,s5
    80002580:	de7ff0ef          	jal	80002366 <iget>
    80002584:	74a2                	ld	s1,40(sp)
    80002586:	7902                	ld	s2,32(sp)
    80002588:	69e2                	ld	s3,24(sp)
    8000258a:	6a42                	ld	s4,16(sp)
    8000258c:	6aa2                	ld	s5,8(sp)
    8000258e:	6b02                	ld	s6,0(sp)
    80002590:	b7d9                	j	80002556 <ialloc+0x80>

0000000080002592 <iupdate>:
{
    80002592:	1101                	addi	sp,sp,-32
    80002594:	ec06                	sd	ra,24(sp)
    80002596:	e822                	sd	s0,16(sp)
    80002598:	e426                	sd	s1,8(sp)
    8000259a:	e04a                	sd	s2,0(sp)
    8000259c:	1000                	addi	s0,sp,32
    8000259e:	84aa                	mv	s1,a0
  bp = bread(ip->dev, IBLOCK(ip->inum, sb));
    800025a0:	415c                	lw	a5,4(a0)
    800025a2:	0047d79b          	srliw	a5,a5,0x4
    800025a6:	00024597          	auipc	a1,0x24
    800025aa:	3fa5a583          	lw	a1,1018(a1) # 800269a0 <sb+0x18>
    800025ae:	9dbd                	addw	a1,a1,a5
    800025b0:	4108                	lw	a0,0(a0)
    800025b2:	95dff0ef          	jal	80001f0e <bread>
    800025b6:	892a                	mv	s2,a0
  dip = (struct dinode*)bp->data + ip->inum%IPB;
    800025b8:	05850793          	addi	a5,a0,88
    800025bc:	40d8                	lw	a4,4(s1)
    800025be:	8b3d                	andi	a4,a4,15
    800025c0:	071a                	slli	a4,a4,0x6
    800025c2:	97ba                	add	a5,a5,a4
  dip->type = ip->type;
    800025c4:	04449703          	lh	a4,68(s1)
    800025c8:	00e79023          	sh	a4,0(a5)
  dip->major = ip->major;
    800025cc:	04649703          	lh	a4,70(s1)
    800025d0:	00e79123          	sh	a4,2(a5)
  dip->minor = ip->minor;
    800025d4:	04849703          	lh	a4,72(s1)
    800025d8:	00e79223          	sh	a4,4(a5)
  dip->nlink = ip->nlink;
    800025dc:	04a49703          	lh	a4,74(s1)
    800025e0:	00e79323          	sh	a4,6(a5)
  dip->size = ip->size;
    800025e4:	44f8                	lw	a4,76(s1)
    800025e6:	c798                	sw	a4,8(a5)
  memmove(dip->addrs, ip->addrs, sizeof(ip->addrs));
    800025e8:	03400613          	li	a2,52
    800025ec:	05048593          	addi	a1,s1,80
    800025f0:	00c78513          	addi	a0,a5,12
    800025f4:	bb7fd0ef          	jal	800001aa <memmove>
  log_write(bp);
    800025f8:	854a                	mv	a0,s2
    800025fa:	269000ef          	jal	80003062 <log_write>
  brelse(bp);
    800025fe:	854a                	mv	a0,s2
    80002600:	a17ff0ef          	jal	80002016 <brelse>
}
    80002604:	60e2                	ld	ra,24(sp)
    80002606:	6442                	ld	s0,16(sp)
    80002608:	64a2                	ld	s1,8(sp)
    8000260a:	6902                	ld	s2,0(sp)
    8000260c:	6105                	addi	sp,sp,32
    8000260e:	8082                	ret

0000000080002610 <idup>:
{
    80002610:	1101                	addi	sp,sp,-32
    80002612:	ec06                	sd	ra,24(sp)
    80002614:	e822                	sd	s0,16(sp)
    80002616:	e426                	sd	s1,8(sp)
    80002618:	1000                	addi	s0,sp,32
    8000261a:	84aa                	mv	s1,a0
  acquire(&itable.lock);
    8000261c:	00024517          	auipc	a0,0x24
    80002620:	38c50513          	addi	a0,a0,908 # 800269a8 <itable>
    80002624:	10c030ef          	jal	80005730 <acquire>
  ip->ref++;
    80002628:	449c                	lw	a5,8(s1)
    8000262a:	2785                	addiw	a5,a5,1
    8000262c:	c49c                	sw	a5,8(s1)
  release(&itable.lock);
    8000262e:	00024517          	auipc	a0,0x24
    80002632:	37a50513          	addi	a0,a0,890 # 800269a8 <itable>
    80002636:	192030ef          	jal	800057c8 <release>
}
    8000263a:	8526                	mv	a0,s1
    8000263c:	60e2                	ld	ra,24(sp)
    8000263e:	6442                	ld	s0,16(sp)
    80002640:	64a2                	ld	s1,8(sp)
    80002642:	6105                	addi	sp,sp,32
    80002644:	8082                	ret

0000000080002646 <ilock>:
{
    80002646:	1101                	addi	sp,sp,-32
    80002648:	ec06                	sd	ra,24(sp)
    8000264a:	e822                	sd	s0,16(sp)
    8000264c:	e426                	sd	s1,8(sp)
    8000264e:	1000                	addi	s0,sp,32
  if(ip == 0 || ip->ref < 1)
    80002650:	cd19                	beqz	a0,8000266e <ilock+0x28>
    80002652:	84aa                	mv	s1,a0
    80002654:	451c                	lw	a5,8(a0)
    80002656:	00f05c63          	blez	a5,8000266e <ilock+0x28>
  acquiresleep(&ip->lock);
    8000265a:	0541                	addi	a0,a0,16
    8000265c:	30f000ef          	jal	8000316a <acquiresleep>
  if(ip->valid == 0){
    80002660:	40bc                	lw	a5,64(s1)
    80002662:	cf89                	beqz	a5,8000267c <ilock+0x36>
}
    80002664:	60e2                	ld	ra,24(sp)
    80002666:	6442                	ld	s0,16(sp)
    80002668:	64a2                	ld	s1,8(sp)
    8000266a:	6105                	addi	sp,sp,32
    8000266c:	8082                	ret
    8000266e:	e04a                	sd	s2,0(sp)
    panic("ilock");
    80002670:	00005517          	auipc	a0,0x5
    80002674:	e3050513          	addi	a0,a0,-464 # 800074a0 <etext+0x4a0>
    80002678:	58b020ef          	jal	80005402 <panic>
    8000267c:	e04a                	sd	s2,0(sp)
    bp = bread(ip->dev, IBLOCK(ip->inum, sb));
    8000267e:	40dc                	lw	a5,4(s1)
    80002680:	0047d79b          	srliw	a5,a5,0x4
    80002684:	00024597          	auipc	a1,0x24
    80002688:	31c5a583          	lw	a1,796(a1) # 800269a0 <sb+0x18>
    8000268c:	9dbd                	addw	a1,a1,a5
    8000268e:	4088                	lw	a0,0(s1)
    80002690:	87fff0ef          	jal	80001f0e <bread>
    80002694:	892a                	mv	s2,a0
    dip = (struct dinode*)bp->data + ip->inum%IPB;
    80002696:	05850593          	addi	a1,a0,88
    8000269a:	40dc                	lw	a5,4(s1)
    8000269c:	8bbd                	andi	a5,a5,15
    8000269e:	079a                	slli	a5,a5,0x6
    800026a0:	95be                	add	a1,a1,a5
    ip->type = dip->type;
    800026a2:	00059783          	lh	a5,0(a1)
    800026a6:	04f49223          	sh	a5,68(s1)
    ip->major = dip->major;
    800026aa:	00259783          	lh	a5,2(a1)
    800026ae:	04f49323          	sh	a5,70(s1)
    ip->minor = dip->minor;
    800026b2:	00459783          	lh	a5,4(a1)
    800026b6:	04f49423          	sh	a5,72(s1)
    ip->nlink = dip->nlink;
    800026ba:	00659783          	lh	a5,6(a1)
    800026be:	04f49523          	sh	a5,74(s1)
    ip->size = dip->size;
    800026c2:	459c                	lw	a5,8(a1)
    800026c4:	c4fc                	sw	a5,76(s1)
    memmove(ip->addrs, dip->addrs, sizeof(ip->addrs));
    800026c6:	03400613          	li	a2,52
    800026ca:	05b1                	addi	a1,a1,12
    800026cc:	05048513          	addi	a0,s1,80
    800026d0:	adbfd0ef          	jal	800001aa <memmove>
    brelse(bp);
    800026d4:	854a                	mv	a0,s2
    800026d6:	941ff0ef          	jal	80002016 <brelse>
    ip->valid = 1;
    800026da:	4785                	li	a5,1
    800026dc:	c0bc                	sw	a5,64(s1)
    if(ip->type == 0)
    800026de:	04449783          	lh	a5,68(s1)
    800026e2:	c399                	beqz	a5,800026e8 <ilock+0xa2>
    800026e4:	6902                	ld	s2,0(sp)
    800026e6:	bfbd                	j	80002664 <ilock+0x1e>
      panic("ilock: no type");
    800026e8:	00005517          	auipc	a0,0x5
    800026ec:	dc050513          	addi	a0,a0,-576 # 800074a8 <etext+0x4a8>
    800026f0:	513020ef          	jal	80005402 <panic>

00000000800026f4 <iunlock>:
{
    800026f4:	1101                	addi	sp,sp,-32
    800026f6:	ec06                	sd	ra,24(sp)
    800026f8:	e822                	sd	s0,16(sp)
    800026fa:	e426                	sd	s1,8(sp)
    800026fc:	e04a                	sd	s2,0(sp)
    800026fe:	1000                	addi	s0,sp,32
  if(ip == 0 || !holdingsleep(&ip->lock) || ip->ref < 1)
    80002700:	c505                	beqz	a0,80002728 <iunlock+0x34>
    80002702:	84aa                	mv	s1,a0
    80002704:	01050913          	addi	s2,a0,16
    80002708:	854a                	mv	a0,s2
    8000270a:	2df000ef          	jal	800031e8 <holdingsleep>
    8000270e:	cd09                	beqz	a0,80002728 <iunlock+0x34>
    80002710:	449c                	lw	a5,8(s1)
    80002712:	00f05b63          	blez	a5,80002728 <iunlock+0x34>
  releasesleep(&ip->lock);
    80002716:	854a                	mv	a0,s2
    80002718:	299000ef          	jal	800031b0 <releasesleep>
}
    8000271c:	60e2                	ld	ra,24(sp)
    8000271e:	6442                	ld	s0,16(sp)
    80002720:	64a2                	ld	s1,8(sp)
    80002722:	6902                	ld	s2,0(sp)
    80002724:	6105                	addi	sp,sp,32
    80002726:	8082                	ret
    panic("iunlock");
    80002728:	00005517          	auipc	a0,0x5
    8000272c:	d9050513          	addi	a0,a0,-624 # 800074b8 <etext+0x4b8>
    80002730:	4d3020ef          	jal	80005402 <panic>

0000000080002734 <itrunc>:

// Truncate inode (discard contents).
// Caller must hold ip->lock.
void
itrunc(struct inode *ip)
{
    80002734:	7179                	addi	sp,sp,-48
    80002736:	f406                	sd	ra,40(sp)
    80002738:	f022                	sd	s0,32(sp)
    8000273a:	ec26                	sd	s1,24(sp)
    8000273c:	e84a                	sd	s2,16(sp)
    8000273e:	e44e                	sd	s3,8(sp)
    80002740:	1800                	addi	s0,sp,48
    80002742:	89aa                	mv	s3,a0
  int i, j;
  struct buf *bp;
  uint *a;

  for(i = 0; i < NDIRECT; i++){
    80002744:	05050493          	addi	s1,a0,80
    80002748:	08050913          	addi	s2,a0,128
    8000274c:	a021                	j	80002754 <itrunc+0x20>
    8000274e:	0491                	addi	s1,s1,4
    80002750:	01248b63          	beq	s1,s2,80002766 <itrunc+0x32>
    if(ip->addrs[i]){
    80002754:	408c                	lw	a1,0(s1)
    80002756:	dde5                	beqz	a1,8000274e <itrunc+0x1a>
      bfree(ip->dev, ip->addrs[i]);
    80002758:	0009a503          	lw	a0,0(s3)
    8000275c:	9abff0ef          	jal	80002106 <bfree>
      ip->addrs[i] = 0;
    80002760:	0004a023          	sw	zero,0(s1)
    80002764:	b7ed                	j	8000274e <itrunc+0x1a>
    }
  }

  if(ip->addrs[NDIRECT]){
    80002766:	0809a583          	lw	a1,128(s3)
    8000276a:	ed89                	bnez	a1,80002784 <itrunc+0x50>
    brelse(bp);
    bfree(ip->dev, ip->addrs[NDIRECT]);
    ip->addrs[NDIRECT] = 0;
  }

  ip->size = 0;
    8000276c:	0409a623          	sw	zero,76(s3)
  iupdate(ip);
    80002770:	854e                	mv	a0,s3
    80002772:	e21ff0ef          	jal	80002592 <iupdate>
}
    80002776:	70a2                	ld	ra,40(sp)
    80002778:	7402                	ld	s0,32(sp)
    8000277a:	64e2                	ld	s1,24(sp)
    8000277c:	6942                	ld	s2,16(sp)
    8000277e:	69a2                	ld	s3,8(sp)
    80002780:	6145                	addi	sp,sp,48
    80002782:	8082                	ret
    80002784:	e052                	sd	s4,0(sp)
    bp = bread(ip->dev, ip->addrs[NDIRECT]);
    80002786:	0009a503          	lw	a0,0(s3)
    8000278a:	f84ff0ef          	jal	80001f0e <bread>
    8000278e:	8a2a                	mv	s4,a0
    for(j = 0; j < NINDIRECT; j++){
    80002790:	05850493          	addi	s1,a0,88
    80002794:	45850913          	addi	s2,a0,1112
    80002798:	a021                	j	800027a0 <itrunc+0x6c>
    8000279a:	0491                	addi	s1,s1,4
    8000279c:	01248963          	beq	s1,s2,800027ae <itrunc+0x7a>
      if(a[j])
    800027a0:	408c                	lw	a1,0(s1)
    800027a2:	dde5                	beqz	a1,8000279a <itrunc+0x66>
        bfree(ip->dev, a[j]);
    800027a4:	0009a503          	lw	a0,0(s3)
    800027a8:	95fff0ef          	jal	80002106 <bfree>
    800027ac:	b7fd                	j	8000279a <itrunc+0x66>
    brelse(bp);
    800027ae:	8552                	mv	a0,s4
    800027b0:	867ff0ef          	jal	80002016 <brelse>
    bfree(ip->dev, ip->addrs[NDIRECT]);
    800027b4:	0809a583          	lw	a1,128(s3)
    800027b8:	0009a503          	lw	a0,0(s3)
    800027bc:	94bff0ef          	jal	80002106 <bfree>
    ip->addrs[NDIRECT] = 0;
    800027c0:	0809a023          	sw	zero,128(s3)
    800027c4:	6a02                	ld	s4,0(sp)
    800027c6:	b75d                	j	8000276c <itrunc+0x38>

00000000800027c8 <iput>:
{
    800027c8:	1101                	addi	sp,sp,-32
    800027ca:	ec06                	sd	ra,24(sp)
    800027cc:	e822                	sd	s0,16(sp)
    800027ce:	e426                	sd	s1,8(sp)
    800027d0:	1000                	addi	s0,sp,32
    800027d2:	84aa                	mv	s1,a0
  acquire(&itable.lock);
    800027d4:	00024517          	auipc	a0,0x24
    800027d8:	1d450513          	addi	a0,a0,468 # 800269a8 <itable>
    800027dc:	755020ef          	jal	80005730 <acquire>
  if(ip->ref == 1 && ip->valid && ip->nlink == 0){
    800027e0:	4498                	lw	a4,8(s1)
    800027e2:	4785                	li	a5,1
    800027e4:	02f70063          	beq	a4,a5,80002804 <iput+0x3c>
  ip->ref--;
    800027e8:	449c                	lw	a5,8(s1)
    800027ea:	37fd                	addiw	a5,a5,-1
    800027ec:	c49c                	sw	a5,8(s1)
  release(&itable.lock);
    800027ee:	00024517          	auipc	a0,0x24
    800027f2:	1ba50513          	addi	a0,a0,442 # 800269a8 <itable>
    800027f6:	7d3020ef          	jal	800057c8 <release>
}
    800027fa:	60e2                	ld	ra,24(sp)
    800027fc:	6442                	ld	s0,16(sp)
    800027fe:	64a2                	ld	s1,8(sp)
    80002800:	6105                	addi	sp,sp,32
    80002802:	8082                	ret
  if(ip->ref == 1 && ip->valid && ip->nlink == 0){
    80002804:	40bc                	lw	a5,64(s1)
    80002806:	d3ed                	beqz	a5,800027e8 <iput+0x20>
    80002808:	04a49783          	lh	a5,74(s1)
    8000280c:	fff1                	bnez	a5,800027e8 <iput+0x20>
    8000280e:	e04a                	sd	s2,0(sp)
    acquiresleep(&ip->lock);
    80002810:	01048913          	addi	s2,s1,16
    80002814:	854a                	mv	a0,s2
    80002816:	155000ef          	jal	8000316a <acquiresleep>
    release(&itable.lock);
    8000281a:	00024517          	auipc	a0,0x24
    8000281e:	18e50513          	addi	a0,a0,398 # 800269a8 <itable>
    80002822:	7a7020ef          	jal	800057c8 <release>
    itrunc(ip);
    80002826:	8526                	mv	a0,s1
    80002828:	f0dff0ef          	jal	80002734 <itrunc>
    ip->type = 0;
    8000282c:	04049223          	sh	zero,68(s1)
    iupdate(ip);
    80002830:	8526                	mv	a0,s1
    80002832:	d61ff0ef          	jal	80002592 <iupdate>
    ip->valid = 0;
    80002836:	0404a023          	sw	zero,64(s1)
    releasesleep(&ip->lock);
    8000283a:	854a                	mv	a0,s2
    8000283c:	175000ef          	jal	800031b0 <releasesleep>
    acquire(&itable.lock);
    80002840:	00024517          	auipc	a0,0x24
    80002844:	16850513          	addi	a0,a0,360 # 800269a8 <itable>
    80002848:	6e9020ef          	jal	80005730 <acquire>
    8000284c:	6902                	ld	s2,0(sp)
    8000284e:	bf69                	j	800027e8 <iput+0x20>

0000000080002850 <iunlockput>:
{
    80002850:	1101                	addi	sp,sp,-32
    80002852:	ec06                	sd	ra,24(sp)
    80002854:	e822                	sd	s0,16(sp)
    80002856:	e426                	sd	s1,8(sp)
    80002858:	1000                	addi	s0,sp,32
    8000285a:	84aa                	mv	s1,a0
  iunlock(ip);
    8000285c:	e99ff0ef          	jal	800026f4 <iunlock>
  iput(ip);
    80002860:	8526                	mv	a0,s1
    80002862:	f67ff0ef          	jal	800027c8 <iput>
}
    80002866:	60e2                	ld	ra,24(sp)
    80002868:	6442                	ld	s0,16(sp)
    8000286a:	64a2                	ld	s1,8(sp)
    8000286c:	6105                	addi	sp,sp,32
    8000286e:	8082                	ret

0000000080002870 <stati>:

// Copy stat information from inode.
// Caller must hold ip->lock.
void
stati(struct inode *ip, struct stat *st)
{
    80002870:	1141                	addi	sp,sp,-16
    80002872:	e422                	sd	s0,8(sp)
    80002874:	0800                	addi	s0,sp,16
  st->dev = ip->dev;
    80002876:	411c                	lw	a5,0(a0)
    80002878:	c19c                	sw	a5,0(a1)
  st->ino = ip->inum;
    8000287a:	415c                	lw	a5,4(a0)
    8000287c:	c1dc                	sw	a5,4(a1)
  st->type = ip->type;
    8000287e:	04451783          	lh	a5,68(a0)
    80002882:	00f59423          	sh	a5,8(a1)
  st->nlink = ip->nlink;
    80002886:	04a51783          	lh	a5,74(a0)
    8000288a:	00f59523          	sh	a5,10(a1)
  st->size = ip->size;
    8000288e:	04c56783          	lwu	a5,76(a0)
    80002892:	e99c                	sd	a5,16(a1)
}
    80002894:	6422                	ld	s0,8(sp)
    80002896:	0141                	addi	sp,sp,16
    80002898:	8082                	ret

000000008000289a <readi>:
readi(struct inode *ip, int user_dst, uint64 dst, uint off, uint n)
{
  uint tot, m;
  struct buf *bp;

  if(off > ip->size || off + n < off)
    8000289a:	457c                	lw	a5,76(a0)
    8000289c:	0ed7eb63          	bltu	a5,a3,80002992 <readi+0xf8>
{
    800028a0:	7159                	addi	sp,sp,-112
    800028a2:	f486                	sd	ra,104(sp)
    800028a4:	f0a2                	sd	s0,96(sp)
    800028a6:	eca6                	sd	s1,88(sp)
    800028a8:	e0d2                	sd	s4,64(sp)
    800028aa:	fc56                	sd	s5,56(sp)
    800028ac:	f85a                	sd	s6,48(sp)
    800028ae:	f45e                	sd	s7,40(sp)
    800028b0:	1880                	addi	s0,sp,112
    800028b2:	8b2a                	mv	s6,a0
    800028b4:	8bae                	mv	s7,a1
    800028b6:	8a32                	mv	s4,a2
    800028b8:	84b6                	mv	s1,a3
    800028ba:	8aba                	mv	s5,a4
  if(off > ip->size || off + n < off)
    800028bc:	9f35                	addw	a4,a4,a3
    return 0;
    800028be:	4501                	li	a0,0
  if(off > ip->size || off + n < off)
    800028c0:	0cd76063          	bltu	a4,a3,80002980 <readi+0xe6>
    800028c4:	e4ce                	sd	s3,72(sp)
  if(off + n > ip->size)
    800028c6:	00e7f463          	bgeu	a5,a4,800028ce <readi+0x34>
    n = ip->size - off;
    800028ca:	40d78abb          	subw	s5,a5,a3

  for(tot=0; tot<n; tot+=m, off+=m, dst+=m){
    800028ce:	080a8f63          	beqz	s5,8000296c <readi+0xd2>
    800028d2:	e8ca                	sd	s2,80(sp)
    800028d4:	f062                	sd	s8,32(sp)
    800028d6:	ec66                	sd	s9,24(sp)
    800028d8:	e86a                	sd	s10,16(sp)
    800028da:	e46e                	sd	s11,8(sp)
    800028dc:	4981                	li	s3,0
    uint addr = bmap(ip, off/BSIZE);
    if(addr == 0)
      break;
    bp = bread(ip->dev, addr);
    m = min(n - tot, BSIZE - off%BSIZE);
    800028de:	40000c93          	li	s9,1024
    if(either_copyout(user_dst, dst, bp->data + (off % BSIZE), m) == -1) {
    800028e2:	5c7d                	li	s8,-1
    800028e4:	a80d                	j	80002916 <readi+0x7c>
    800028e6:	020d1d93          	slli	s11,s10,0x20
    800028ea:	020ddd93          	srli	s11,s11,0x20
    800028ee:	05890613          	addi	a2,s2,88
    800028f2:	86ee                	mv	a3,s11
    800028f4:	963a                	add	a2,a2,a4
    800028f6:	85d2                	mv	a1,s4
    800028f8:	855e                	mv	a0,s7
    800028fa:	d97fe0ef          	jal	80001690 <either_copyout>
    800028fe:	05850763          	beq	a0,s8,8000294c <readi+0xb2>
      brelse(bp);
      tot = -1;
      break;
    }
    brelse(bp);
    80002902:	854a                	mv	a0,s2
    80002904:	f12ff0ef          	jal	80002016 <brelse>
  for(tot=0; tot<n; tot+=m, off+=m, dst+=m){
    80002908:	013d09bb          	addw	s3,s10,s3
    8000290c:	009d04bb          	addw	s1,s10,s1
    80002910:	9a6e                	add	s4,s4,s11
    80002912:	0559f763          	bgeu	s3,s5,80002960 <readi+0xc6>
    uint addr = bmap(ip, off/BSIZE);
    80002916:	00a4d59b          	srliw	a1,s1,0xa
    8000291a:	855a                	mv	a0,s6
    8000291c:	977ff0ef          	jal	80002292 <bmap>
    80002920:	0005059b          	sext.w	a1,a0
    if(addr == 0)
    80002924:	c5b1                	beqz	a1,80002970 <readi+0xd6>
    bp = bread(ip->dev, addr);
    80002926:	000b2503          	lw	a0,0(s6)
    8000292a:	de4ff0ef          	jal	80001f0e <bread>
    8000292e:	892a                	mv	s2,a0
    m = min(n - tot, BSIZE - off%BSIZE);
    80002930:	3ff4f713          	andi	a4,s1,1023
    80002934:	40ec87bb          	subw	a5,s9,a4
    80002938:	413a86bb          	subw	a3,s5,s3
    8000293c:	8d3e                	mv	s10,a5
    8000293e:	2781                	sext.w	a5,a5
    80002940:	0006861b          	sext.w	a2,a3
    80002944:	faf671e3          	bgeu	a2,a5,800028e6 <readi+0x4c>
    80002948:	8d36                	mv	s10,a3
    8000294a:	bf71                	j	800028e6 <readi+0x4c>
      brelse(bp);
    8000294c:	854a                	mv	a0,s2
    8000294e:	ec8ff0ef          	jal	80002016 <brelse>
      tot = -1;
    80002952:	59fd                	li	s3,-1
      break;
    80002954:	6946                	ld	s2,80(sp)
    80002956:	7c02                	ld	s8,32(sp)
    80002958:	6ce2                	ld	s9,24(sp)
    8000295a:	6d42                	ld	s10,16(sp)
    8000295c:	6da2                	ld	s11,8(sp)
    8000295e:	a831                	j	8000297a <readi+0xe0>
    80002960:	6946                	ld	s2,80(sp)
    80002962:	7c02                	ld	s8,32(sp)
    80002964:	6ce2                	ld	s9,24(sp)
    80002966:	6d42                	ld	s10,16(sp)
    80002968:	6da2                	ld	s11,8(sp)
    8000296a:	a801                	j	8000297a <readi+0xe0>
  for(tot=0; tot<n; tot+=m, off+=m, dst+=m){
    8000296c:	89d6                	mv	s3,s5
    8000296e:	a031                	j	8000297a <readi+0xe0>
    80002970:	6946                	ld	s2,80(sp)
    80002972:	7c02                	ld	s8,32(sp)
    80002974:	6ce2                	ld	s9,24(sp)
    80002976:	6d42                	ld	s10,16(sp)
    80002978:	6da2                	ld	s11,8(sp)
  }
  return tot;
    8000297a:	0009851b          	sext.w	a0,s3
    8000297e:	69a6                	ld	s3,72(sp)
}
    80002980:	70a6                	ld	ra,104(sp)
    80002982:	7406                	ld	s0,96(sp)
    80002984:	64e6                	ld	s1,88(sp)
    80002986:	6a06                	ld	s4,64(sp)
    80002988:	7ae2                	ld	s5,56(sp)
    8000298a:	7b42                	ld	s6,48(sp)
    8000298c:	7ba2                	ld	s7,40(sp)
    8000298e:	6165                	addi	sp,sp,112
    80002990:	8082                	ret
    return 0;
    80002992:	4501                	li	a0,0
}
    80002994:	8082                	ret

0000000080002996 <writei>:
writei(struct inode *ip, int user_src, uint64 src, uint off, uint n)
{
  uint tot, m;
  struct buf *bp;

  if(off > ip->size || off + n < off)
    80002996:	457c                	lw	a5,76(a0)
    80002998:	10d7e063          	bltu	a5,a3,80002a98 <writei+0x102>
{
    8000299c:	7159                	addi	sp,sp,-112
    8000299e:	f486                	sd	ra,104(sp)
    800029a0:	f0a2                	sd	s0,96(sp)
    800029a2:	e8ca                	sd	s2,80(sp)
    800029a4:	e0d2                	sd	s4,64(sp)
    800029a6:	fc56                	sd	s5,56(sp)
    800029a8:	f85a                	sd	s6,48(sp)
    800029aa:	f45e                	sd	s7,40(sp)
    800029ac:	1880                	addi	s0,sp,112
    800029ae:	8aaa                	mv	s5,a0
    800029b0:	8bae                	mv	s7,a1
    800029b2:	8a32                	mv	s4,a2
    800029b4:	8936                	mv	s2,a3
    800029b6:	8b3a                	mv	s6,a4
  if(off > ip->size || off + n < off)
    800029b8:	00e687bb          	addw	a5,a3,a4
    800029bc:	0ed7e063          	bltu	a5,a3,80002a9c <writei+0x106>
    return -1;
  if(off + n > MAXFILE*BSIZE)
    800029c0:	00043737          	lui	a4,0x43
    800029c4:	0cf76e63          	bltu	a4,a5,80002aa0 <writei+0x10a>
    800029c8:	e4ce                	sd	s3,72(sp)
    return -1;

  for(tot=0; tot<n; tot+=m, off+=m, src+=m){
    800029ca:	0a0b0f63          	beqz	s6,80002a88 <writei+0xf2>
    800029ce:	eca6                	sd	s1,88(sp)
    800029d0:	f062                	sd	s8,32(sp)
    800029d2:	ec66                	sd	s9,24(sp)
    800029d4:	e86a                	sd	s10,16(sp)
    800029d6:	e46e                	sd	s11,8(sp)
    800029d8:	4981                	li	s3,0
    uint addr = bmap(ip, off/BSIZE);
    if(addr == 0)
      break;
    bp = bread(ip->dev, addr);
    m = min(n - tot, BSIZE - off%BSIZE);
    800029da:	40000c93          	li	s9,1024
    if(either_copyin(bp->data + (off % BSIZE), user_src, src, m) == -1) {
    800029de:	5c7d                	li	s8,-1
    800029e0:	a825                	j	80002a18 <writei+0x82>
    800029e2:	020d1d93          	slli	s11,s10,0x20
    800029e6:	020ddd93          	srli	s11,s11,0x20
    800029ea:	05848513          	addi	a0,s1,88
    800029ee:	86ee                	mv	a3,s11
    800029f0:	8652                	mv	a2,s4
    800029f2:	85de                	mv	a1,s7
    800029f4:	953a                	add	a0,a0,a4
    800029f6:	ce5fe0ef          	jal	800016da <either_copyin>
    800029fa:	05850a63          	beq	a0,s8,80002a4e <writei+0xb8>
      brelse(bp);
      break;
    }
    log_write(bp);
    800029fe:	8526                	mv	a0,s1
    80002a00:	662000ef          	jal	80003062 <log_write>
    brelse(bp);
    80002a04:	8526                	mv	a0,s1
    80002a06:	e10ff0ef          	jal	80002016 <brelse>
  for(tot=0; tot<n; tot+=m, off+=m, src+=m){
    80002a0a:	013d09bb          	addw	s3,s10,s3
    80002a0e:	012d093b          	addw	s2,s10,s2
    80002a12:	9a6e                	add	s4,s4,s11
    80002a14:	0569f063          	bgeu	s3,s6,80002a54 <writei+0xbe>
    uint addr = bmap(ip, off/BSIZE);
    80002a18:	00a9559b          	srliw	a1,s2,0xa
    80002a1c:	8556                	mv	a0,s5
    80002a1e:	875ff0ef          	jal	80002292 <bmap>
    80002a22:	0005059b          	sext.w	a1,a0
    if(addr == 0)
    80002a26:	c59d                	beqz	a1,80002a54 <writei+0xbe>
    bp = bread(ip->dev, addr);
    80002a28:	000aa503          	lw	a0,0(s5)
    80002a2c:	ce2ff0ef          	jal	80001f0e <bread>
    80002a30:	84aa                	mv	s1,a0
    m = min(n - tot, BSIZE - off%BSIZE);
    80002a32:	3ff97713          	andi	a4,s2,1023
    80002a36:	40ec87bb          	subw	a5,s9,a4
    80002a3a:	413b06bb          	subw	a3,s6,s3
    80002a3e:	8d3e                	mv	s10,a5
    80002a40:	2781                	sext.w	a5,a5
    80002a42:	0006861b          	sext.w	a2,a3
    80002a46:	f8f67ee3          	bgeu	a2,a5,800029e2 <writei+0x4c>
    80002a4a:	8d36                	mv	s10,a3
    80002a4c:	bf59                	j	800029e2 <writei+0x4c>
      brelse(bp);
    80002a4e:	8526                	mv	a0,s1
    80002a50:	dc6ff0ef          	jal	80002016 <brelse>
  }

  if(off > ip->size)
    80002a54:	04caa783          	lw	a5,76(s5)
    80002a58:	0327fa63          	bgeu	a5,s2,80002a8c <writei+0xf6>
    ip->size = off;
    80002a5c:	052aa623          	sw	s2,76(s5)
    80002a60:	64e6                	ld	s1,88(sp)
    80002a62:	7c02                	ld	s8,32(sp)
    80002a64:	6ce2                	ld	s9,24(sp)
    80002a66:	6d42                	ld	s10,16(sp)
    80002a68:	6da2                	ld	s11,8(sp)

  // write the i-node back to disk even if the size didn't change
  // because the loop above might have called bmap() and added a new
  // block to ip->addrs[].
  iupdate(ip);
    80002a6a:	8556                	mv	a0,s5
    80002a6c:	b27ff0ef          	jal	80002592 <iupdate>

  return tot;
    80002a70:	0009851b          	sext.w	a0,s3
    80002a74:	69a6                	ld	s3,72(sp)
}
    80002a76:	70a6                	ld	ra,104(sp)
    80002a78:	7406                	ld	s0,96(sp)
    80002a7a:	6946                	ld	s2,80(sp)
    80002a7c:	6a06                	ld	s4,64(sp)
    80002a7e:	7ae2                	ld	s5,56(sp)
    80002a80:	7b42                	ld	s6,48(sp)
    80002a82:	7ba2                	ld	s7,40(sp)
    80002a84:	6165                	addi	sp,sp,112
    80002a86:	8082                	ret
  for(tot=0; tot<n; tot+=m, off+=m, src+=m){
    80002a88:	89da                	mv	s3,s6
    80002a8a:	b7c5                	j	80002a6a <writei+0xd4>
    80002a8c:	64e6                	ld	s1,88(sp)
    80002a8e:	7c02                	ld	s8,32(sp)
    80002a90:	6ce2                	ld	s9,24(sp)
    80002a92:	6d42                	ld	s10,16(sp)
    80002a94:	6da2                	ld	s11,8(sp)
    80002a96:	bfd1                	j	80002a6a <writei+0xd4>
    return -1;
    80002a98:	557d                	li	a0,-1
}
    80002a9a:	8082                	ret
    return -1;
    80002a9c:	557d                	li	a0,-1
    80002a9e:	bfe1                	j	80002a76 <writei+0xe0>
    return -1;
    80002aa0:	557d                	li	a0,-1
    80002aa2:	bfd1                	j	80002a76 <writei+0xe0>

0000000080002aa4 <namecmp>:

// Directories

int
namecmp(const char *s, const char *t)
{
    80002aa4:	1141                	addi	sp,sp,-16
    80002aa6:	e406                	sd	ra,8(sp)
    80002aa8:	e022                	sd	s0,0(sp)
    80002aaa:	0800                	addi	s0,sp,16
  return strncmp(s, t, DIRSIZ);
    80002aac:	4639                	li	a2,14
    80002aae:	f6cfd0ef          	jal	8000021a <strncmp>
}
    80002ab2:	60a2                	ld	ra,8(sp)
    80002ab4:	6402                	ld	s0,0(sp)
    80002ab6:	0141                	addi	sp,sp,16
    80002ab8:	8082                	ret

0000000080002aba <dirlookup>:

// Look for a directory entry in a directory.
// If found, set *poff to byte offset of entry.
struct inode*
dirlookup(struct inode *dp, char *name, uint *poff)
{
    80002aba:	7139                	addi	sp,sp,-64
    80002abc:	fc06                	sd	ra,56(sp)
    80002abe:	f822                	sd	s0,48(sp)
    80002ac0:	f426                	sd	s1,40(sp)
    80002ac2:	f04a                	sd	s2,32(sp)
    80002ac4:	ec4e                	sd	s3,24(sp)
    80002ac6:	e852                	sd	s4,16(sp)
    80002ac8:	0080                	addi	s0,sp,64
  uint off, inum;
  struct dirent de;

  if(dp->type != T_DIR)
    80002aca:	04451703          	lh	a4,68(a0)
    80002ace:	4785                	li	a5,1
    80002ad0:	00f71a63          	bne	a4,a5,80002ae4 <dirlookup+0x2a>
    80002ad4:	892a                	mv	s2,a0
    80002ad6:	89ae                	mv	s3,a1
    80002ad8:	8a32                	mv	s4,a2
    panic("dirlookup not DIR");

  for(off = 0; off < dp->size; off += sizeof(de)){
    80002ada:	457c                	lw	a5,76(a0)
    80002adc:	4481                	li	s1,0
      inum = de.inum;
      return iget(dp->dev, inum);
    }
  }

  return 0;
    80002ade:	4501                	li	a0,0
  for(off = 0; off < dp->size; off += sizeof(de)){
    80002ae0:	e39d                	bnez	a5,80002b06 <dirlookup+0x4c>
    80002ae2:	a095                	j	80002b46 <dirlookup+0x8c>
    panic("dirlookup not DIR");
    80002ae4:	00005517          	auipc	a0,0x5
    80002ae8:	9dc50513          	addi	a0,a0,-1572 # 800074c0 <etext+0x4c0>
    80002aec:	117020ef          	jal	80005402 <panic>
      panic("dirlookup read");
    80002af0:	00005517          	auipc	a0,0x5
    80002af4:	9e850513          	addi	a0,a0,-1560 # 800074d8 <etext+0x4d8>
    80002af8:	10b020ef          	jal	80005402 <panic>
  for(off = 0; off < dp->size; off += sizeof(de)){
    80002afc:	24c1                	addiw	s1,s1,16
    80002afe:	04c92783          	lw	a5,76(s2)
    80002b02:	04f4f163          	bgeu	s1,a5,80002b44 <dirlookup+0x8a>
    if(readi(dp, 0, (uint64)&de, off, sizeof(de)) != sizeof(de))
    80002b06:	4741                	li	a4,16
    80002b08:	86a6                	mv	a3,s1
    80002b0a:	fc040613          	addi	a2,s0,-64
    80002b0e:	4581                	li	a1,0
    80002b10:	854a                	mv	a0,s2
    80002b12:	d89ff0ef          	jal	8000289a <readi>
    80002b16:	47c1                	li	a5,16
    80002b18:	fcf51ce3          	bne	a0,a5,80002af0 <dirlookup+0x36>
    if(de.inum == 0)
    80002b1c:	fc045783          	lhu	a5,-64(s0)
    80002b20:	dff1                	beqz	a5,80002afc <dirlookup+0x42>
    if(namecmp(name, de.name) == 0){
    80002b22:	fc240593          	addi	a1,s0,-62
    80002b26:	854e                	mv	a0,s3
    80002b28:	f7dff0ef          	jal	80002aa4 <namecmp>
    80002b2c:	f961                	bnez	a0,80002afc <dirlookup+0x42>
      if(poff)
    80002b2e:	000a0463          	beqz	s4,80002b36 <dirlookup+0x7c>
        *poff = off;
    80002b32:	009a2023          	sw	s1,0(s4)
      return iget(dp->dev, inum);
    80002b36:	fc045583          	lhu	a1,-64(s0)
    80002b3a:	00092503          	lw	a0,0(s2)
    80002b3e:	829ff0ef          	jal	80002366 <iget>
    80002b42:	a011                	j	80002b46 <dirlookup+0x8c>
  return 0;
    80002b44:	4501                	li	a0,0
}
    80002b46:	70e2                	ld	ra,56(sp)
    80002b48:	7442                	ld	s0,48(sp)
    80002b4a:	74a2                	ld	s1,40(sp)
    80002b4c:	7902                	ld	s2,32(sp)
    80002b4e:	69e2                	ld	s3,24(sp)
    80002b50:	6a42                	ld	s4,16(sp)
    80002b52:	6121                	addi	sp,sp,64
    80002b54:	8082                	ret

0000000080002b56 <namex>:
// If parent != 0, return the inode for the parent and copy the final
// path element into name, which must have room for DIRSIZ bytes.
// Must be called inside a transaction since it calls iput().
static struct inode*
namex(char *path, int nameiparent, char *name)
{
    80002b56:	711d                	addi	sp,sp,-96
    80002b58:	ec86                	sd	ra,88(sp)
    80002b5a:	e8a2                	sd	s0,80(sp)
    80002b5c:	e4a6                	sd	s1,72(sp)
    80002b5e:	e0ca                	sd	s2,64(sp)
    80002b60:	fc4e                	sd	s3,56(sp)
    80002b62:	f852                	sd	s4,48(sp)
    80002b64:	f456                	sd	s5,40(sp)
    80002b66:	f05a                	sd	s6,32(sp)
    80002b68:	ec5e                	sd	s7,24(sp)
    80002b6a:	e862                	sd	s8,16(sp)
    80002b6c:	e466                	sd	s9,8(sp)
    80002b6e:	1080                	addi	s0,sp,96
    80002b70:	84aa                	mv	s1,a0
    80002b72:	8b2e                	mv	s6,a1
    80002b74:	8ab2                	mv	s5,a2
  struct inode *ip, *next;

  if(*path == '/')
    80002b76:	00054703          	lbu	a4,0(a0)
    80002b7a:	02f00793          	li	a5,47
    80002b7e:	00f70e63          	beq	a4,a5,80002b9a <namex+0x44>
    ip = iget(ROOTDEV, ROOTINO);
  else
    ip = idup(myproc()->cwd);
    80002b82:	9e4fe0ef          	jal	80000d66 <myproc>
    80002b86:	2d053503          	ld	a0,720(a0)
    80002b8a:	a87ff0ef          	jal	80002610 <idup>
    80002b8e:	8a2a                	mv	s4,a0
  while(*path == '/')
    80002b90:	02f00913          	li	s2,47
  if(len >= DIRSIZ)
    80002b94:	4c35                	li	s8,13

  while((path = skipelem(path, name)) != 0){
    ilock(ip);
    if(ip->type != T_DIR){
    80002b96:	4b85                	li	s7,1
    80002b98:	a871                	j	80002c34 <namex+0xde>
    ip = iget(ROOTDEV, ROOTINO);
    80002b9a:	4585                	li	a1,1
    80002b9c:	4505                	li	a0,1
    80002b9e:	fc8ff0ef          	jal	80002366 <iget>
    80002ba2:	8a2a                	mv	s4,a0
    80002ba4:	b7f5                	j	80002b90 <namex+0x3a>
      iunlockput(ip);
    80002ba6:	8552                	mv	a0,s4
    80002ba8:	ca9ff0ef          	jal	80002850 <iunlockput>
      return 0;
    80002bac:	4a01                	li	s4,0
  if(nameiparent){
    iput(ip);
    return 0;
  }
  return ip;
}
    80002bae:	8552                	mv	a0,s4
    80002bb0:	60e6                	ld	ra,88(sp)
    80002bb2:	6446                	ld	s0,80(sp)
    80002bb4:	64a6                	ld	s1,72(sp)
    80002bb6:	6906                	ld	s2,64(sp)
    80002bb8:	79e2                	ld	s3,56(sp)
    80002bba:	7a42                	ld	s4,48(sp)
    80002bbc:	7aa2                	ld	s5,40(sp)
    80002bbe:	7b02                	ld	s6,32(sp)
    80002bc0:	6be2                	ld	s7,24(sp)
    80002bc2:	6c42                	ld	s8,16(sp)
    80002bc4:	6ca2                	ld	s9,8(sp)
    80002bc6:	6125                	addi	sp,sp,96
    80002bc8:	8082                	ret
      iunlock(ip);
    80002bca:	8552                	mv	a0,s4
    80002bcc:	b29ff0ef          	jal	800026f4 <iunlock>
      return ip;
    80002bd0:	bff9                	j	80002bae <namex+0x58>
      iunlockput(ip);
    80002bd2:	8552                	mv	a0,s4
    80002bd4:	c7dff0ef          	jal	80002850 <iunlockput>
      return 0;
    80002bd8:	8a4e                	mv	s4,s3
    80002bda:	bfd1                	j	80002bae <namex+0x58>
  len = path - s;
    80002bdc:	40998633          	sub	a2,s3,s1
    80002be0:	00060c9b          	sext.w	s9,a2
  if(len >= DIRSIZ)
    80002be4:	099c5063          	bge	s8,s9,80002c64 <namex+0x10e>
    memmove(name, s, DIRSIZ);
    80002be8:	4639                	li	a2,14
    80002bea:	85a6                	mv	a1,s1
    80002bec:	8556                	mv	a0,s5
    80002bee:	dbcfd0ef          	jal	800001aa <memmove>
    80002bf2:	84ce                	mv	s1,s3
  while(*path == '/')
    80002bf4:	0004c783          	lbu	a5,0(s1)
    80002bf8:	01279763          	bne	a5,s2,80002c06 <namex+0xb0>
    path++;
    80002bfc:	0485                	addi	s1,s1,1
  while(*path == '/')
    80002bfe:	0004c783          	lbu	a5,0(s1)
    80002c02:	ff278de3          	beq	a5,s2,80002bfc <namex+0xa6>
    ilock(ip);
    80002c06:	8552                	mv	a0,s4
    80002c08:	a3fff0ef          	jal	80002646 <ilock>
    if(ip->type != T_DIR){
    80002c0c:	044a1783          	lh	a5,68(s4)
    80002c10:	f9779be3          	bne	a5,s7,80002ba6 <namex+0x50>
    if(nameiparent && *path == '\0'){
    80002c14:	000b0563          	beqz	s6,80002c1e <namex+0xc8>
    80002c18:	0004c783          	lbu	a5,0(s1)
    80002c1c:	d7dd                	beqz	a5,80002bca <namex+0x74>
    if((next = dirlookup(ip, name, 0)) == 0){
    80002c1e:	4601                	li	a2,0
    80002c20:	85d6                	mv	a1,s5
    80002c22:	8552                	mv	a0,s4
    80002c24:	e97ff0ef          	jal	80002aba <dirlookup>
    80002c28:	89aa                	mv	s3,a0
    80002c2a:	d545                	beqz	a0,80002bd2 <namex+0x7c>
    iunlockput(ip);
    80002c2c:	8552                	mv	a0,s4
    80002c2e:	c23ff0ef          	jal	80002850 <iunlockput>
    ip = next;
    80002c32:	8a4e                	mv	s4,s3
  while(*path == '/')
    80002c34:	0004c783          	lbu	a5,0(s1)
    80002c38:	01279763          	bne	a5,s2,80002c46 <namex+0xf0>
    path++;
    80002c3c:	0485                	addi	s1,s1,1
  while(*path == '/')
    80002c3e:	0004c783          	lbu	a5,0(s1)
    80002c42:	ff278de3          	beq	a5,s2,80002c3c <namex+0xe6>
  if(*path == 0)
    80002c46:	cb8d                	beqz	a5,80002c78 <namex+0x122>
  while(*path != '/' && *path != 0)
    80002c48:	0004c783          	lbu	a5,0(s1)
    80002c4c:	89a6                	mv	s3,s1
  len = path - s;
    80002c4e:	4c81                	li	s9,0
    80002c50:	4601                	li	a2,0
  while(*path != '/' && *path != 0)
    80002c52:	01278963          	beq	a5,s2,80002c64 <namex+0x10e>
    80002c56:	d3d9                	beqz	a5,80002bdc <namex+0x86>
    path++;
    80002c58:	0985                	addi	s3,s3,1
  while(*path != '/' && *path != 0)
    80002c5a:	0009c783          	lbu	a5,0(s3)
    80002c5e:	ff279ce3          	bne	a5,s2,80002c56 <namex+0x100>
    80002c62:	bfad                	j	80002bdc <namex+0x86>
    memmove(name, s, len);
    80002c64:	2601                	sext.w	a2,a2
    80002c66:	85a6                	mv	a1,s1
    80002c68:	8556                	mv	a0,s5
    80002c6a:	d40fd0ef          	jal	800001aa <memmove>
    name[len] = 0;
    80002c6e:	9cd6                	add	s9,s9,s5
    80002c70:	000c8023          	sb	zero,0(s9) # 2000 <_entry-0x7fffe000>
    80002c74:	84ce                	mv	s1,s3
    80002c76:	bfbd                	j	80002bf4 <namex+0x9e>
  if(nameiparent){
    80002c78:	f20b0be3          	beqz	s6,80002bae <namex+0x58>
    iput(ip);
    80002c7c:	8552                	mv	a0,s4
    80002c7e:	b4bff0ef          	jal	800027c8 <iput>
    return 0;
    80002c82:	4a01                	li	s4,0
    80002c84:	b72d                	j	80002bae <namex+0x58>

0000000080002c86 <dirlink>:
{
    80002c86:	7139                	addi	sp,sp,-64
    80002c88:	fc06                	sd	ra,56(sp)
    80002c8a:	f822                	sd	s0,48(sp)
    80002c8c:	f04a                	sd	s2,32(sp)
    80002c8e:	ec4e                	sd	s3,24(sp)
    80002c90:	e852                	sd	s4,16(sp)
    80002c92:	0080                	addi	s0,sp,64
    80002c94:	892a                	mv	s2,a0
    80002c96:	8a2e                	mv	s4,a1
    80002c98:	89b2                	mv	s3,a2
  if((ip = dirlookup(dp, name, 0)) != 0){
    80002c9a:	4601                	li	a2,0
    80002c9c:	e1fff0ef          	jal	80002aba <dirlookup>
    80002ca0:	e535                	bnez	a0,80002d0c <dirlink+0x86>
    80002ca2:	f426                	sd	s1,40(sp)
  for(off = 0; off < dp->size; off += sizeof(de)){
    80002ca4:	04c92483          	lw	s1,76(s2)
    80002ca8:	c48d                	beqz	s1,80002cd2 <dirlink+0x4c>
    80002caa:	4481                	li	s1,0
    if(readi(dp, 0, (uint64)&de, off, sizeof(de)) != sizeof(de))
    80002cac:	4741                	li	a4,16
    80002cae:	86a6                	mv	a3,s1
    80002cb0:	fc040613          	addi	a2,s0,-64
    80002cb4:	4581                	li	a1,0
    80002cb6:	854a                	mv	a0,s2
    80002cb8:	be3ff0ef          	jal	8000289a <readi>
    80002cbc:	47c1                	li	a5,16
    80002cbe:	04f51b63          	bne	a0,a5,80002d14 <dirlink+0x8e>
    if(de.inum == 0)
    80002cc2:	fc045783          	lhu	a5,-64(s0)
    80002cc6:	c791                	beqz	a5,80002cd2 <dirlink+0x4c>
  for(off = 0; off < dp->size; off += sizeof(de)){
    80002cc8:	24c1                	addiw	s1,s1,16
    80002cca:	04c92783          	lw	a5,76(s2)
    80002cce:	fcf4efe3          	bltu	s1,a5,80002cac <dirlink+0x26>
  strncpy(de.name, name, DIRSIZ);
    80002cd2:	4639                	li	a2,14
    80002cd4:	85d2                	mv	a1,s4
    80002cd6:	fc240513          	addi	a0,s0,-62
    80002cda:	d76fd0ef          	jal	80000250 <strncpy>
  de.inum = inum;
    80002cde:	fd341023          	sh	s3,-64(s0)
  if(writei(dp, 0, (uint64)&de, off, sizeof(de)) != sizeof(de))
    80002ce2:	4741                	li	a4,16
    80002ce4:	86a6                	mv	a3,s1
